; ModuleID = 'call_output2.bc'
target datalayout = "e-p:64:64:64-i1:8:8-i8:8:8-i16:16:16-i32:32:32-i64:64:64-f32:32:32-f64:64:64-v64:64:64-v128:128:128-a0:0:64-s0:64:64-f80:128:128"
target triple = "x86_64-unknown-linux-gnu"
	%struct..0._27 = type { i8, i8, i8, i8 }
	%struct..0._30 = type { i8, i8, i8, i8 }
	%struct..0._39 = type { i8, i8, i8, i8 }
	%struct..0._40 = type { i8, i8, i8, i8 }
	%struct..1._29 = type { i8, i8, i8, i8 }
	%struct..1._32 = type { i8, i8, i8, i8 }
	%struct..1._38 = type { i32 }
	%struct..1._41 = type { i8, i8, i8, i8 }
	%struct..1._42 = type { i8, i8, i8, i8 }
	%struct..2._36 = type { i8, i8, i8, i8 }
	%struct..2._41 = type { i8, i8, i8, i8 }
	%struct..3._38 = type { i8, i8, i8, i8 }
	%struct..3._40 = type { i32 }
	%struct.FILE = type { i32, i8*, i8*, i8*, i8*, i8*, i8*, i8*, i8*, i8*, i8*, i8*, %struct._IO_marker*, %struct.FILE*, i32, i32, i64, i16, i8, [1 x i8], i8*, i64, i8*, i8*, i8*, i8*, i64, i32, [20 x i8] }
	%struct._IO_marker = type { %struct._IO_marker*, %struct.FILE*, i32 }
	%struct.__class_type_info_pseudo = type { %struct.__type_info_pseudo }
	%struct.__type_info_pseudo = type { i8*, i8* }
	%struct.boundart = type { %struct.pointt*, i32, i32 }
	%struct.createwayinfot = type { %struct.rvectort, %struct.rvectort, i8 }
	%struct.createwaymnginfot = type { float, float, float, float, i32, i32, float, float }
	%"struct.flexarray<i32>" = type { i32*, i32, i32 }
	%"struct.flexarray<levelplacet>" = type { %struct.levelplacet*, i32, i32 }
	%"struct.flexarray<pointt>" = type { %struct.pointt*, i32, i32 }
	%"struct.flexarray<regboundobj>" = type { %struct.regboundobj*, i32, i32 }
	%"struct.flexarray<regobj*>" = type { %struct.regobj**, i32, i32 }
	%"struct.flexstack<i32>" = type { i32*, i32, i32 }
	%"struct.largesolidarray<regobj*>" = type { %struct.regobj**, %"struct.flexarray<i32>", %"struct.flexarray<i32>", %"struct.flexarray<i32>", i32, i32 }
	%struct.levelplacet = type { i16, i16, float, float, float }
	%struct.point16t = type { i16, i16 }
	%struct.pointt = type { i32, i32 }
	%struct.regboundart = type { %struct.regobj**, i32, i32 }
	%struct.regboundobj = type { %struct.boundart, %struct.boundart, i8, i32, %struct.regobj*, i32, i32, i32, i32, %struct.regobj**, i8*, i32, i32, i32, i32, %struct.regmngobj*, i8 }
	%struct.regmngobj = type { i16*, i16, i32, i32, i8, i32, %struct.regobj**, i8*, [256 x i8], i32, i32, float, i32, i32, %struct..1._38, %struct..1._38, i32, i32, %"struct.largesolidarray<regobj*>" }
	%"struct.regmngobj::._26" = type { i32 }
	%"struct.regmngobj::._28" = type { i32 }
	%"struct.regmngobj::._38" = type { i32 }
	%"struct.regmngobj::._39" = type { i32 }
	%"struct.regmngobj::._40" = type { i32 }
	%"struct.regmngobj::._41" = type { i32 }
	%struct.regobj = type { i32, i8, i8, %struct.regmngobj*, i32, %struct.pointt, i32, i32, i32, %"struct.flexarray<regobj*>" }
	%struct.regwayobj = type { i32 (...)**, %"struct.flexarray<regobj*>", %"struct.flexarray<regobj*>", i32, i32, %struct.regmngobj*, i8, %struct.regobj*, %struct.regobj* }
	%struct.rvectort = type { float, float, float }
	%struct.statinfot = type { double, double, double, double, double, i64, i64, i64, i64, i64, i64, i64, i64 }
	%struct.way2obj = type { i8*, %struct.point16t*, i16, [256 x i8], [256 x %struct.boundart], i32, i32, i32, i32, i32, i32, i32, i8, i32, i32, %struct..1._38, %struct..1._38, i32, i32 }
	%"struct.way2obj::._29" = type { i32 }
	%"struct.way2obj::._31" = type { i32 }
	%"struct.way2obj::._35" = type { i32 }
	%"struct.way2obj::._37" = type { i32 }
	%"struct.way2obj::waymapcellt" = type { i16, i16 }
	%struct.wayinfot = type { i8, %struct.rvectort*, i32, i8 }
	%struct.waymapcellt = type { i16, i16 }
	%struct.wayobj = type { i32, i32, i32, i32, i32, i32, i32, i32, i32, float, float, float, float, float, %struct.createwaymnginfot, %struct.createwayinfot, i16*, %struct.point16t*, i32*, i32*, i32, i32, i8, i32, i16, i16 }
	%struct.workinfot = type { [4096 x i8], i32, i32, i32, i32, i32, i32, i32, float, i32, i32, i32 }
@.str = internal constant [23 x i8] c"Error in createregions\00"		; <[23 x i8]*> [#uses=1]
@way.0 = internal global i32 0		; <i32*> [#uses=4]
@way.1 = internal global i32 0		; <i32*> [#uses=4]
@way.2 = internal global i32 0		; <i32*> [#uses=11]
@way.3 = internal global i32 0		; <i32*> [#uses=3]
@way.4 = internal global i32 0		; <i32*> [#uses=3]
@way.5 = internal global i32 0		; <i32*> [#uses=4]
@way.6 = internal global i32 0		; <i32*> [#uses=4]
@way.7 = internal global i32 0		; <i32*> [#uses=2]
@way.8 = internal global i32 0		; <i32*> [#uses=4]
@way.16 = internal global i16* null		; <i16**> [#uses=13]
@way.17 = internal global %struct.point16t* null		; <%struct.point16t**> [#uses=9]
@way.18 = internal global i32* null		; <i32**> [#uses=4]
@way.19 = internal global i32* null		; <i32**> [#uses=4]
@way.20 = internal global i32 0		; <i32*> [#uses=4]
@way.21 = internal global i32 0		; <i32*> [#uses=3]
@way.22.b = internal global i1 false		; <i1*> [#uses=22]
@way.23 = internal global i32 0		; <i32*> [#uses=11]
@way.24 = internal global i16 0		; <i16*> [#uses=6]
@way.25 = internal global i16 0		; <i16*> [#uses=9]
@regway = internal global %struct.regwayobj {
    i32 (...)** getelementptr ([5 x i32 (...)*]* @_ZTV9regwayobj, i32 0, i64 2), 
    %"struct.flexarray<regobj*>" zeroinitializer, 
    %"struct.flexarray<regobj*>" zeroinitializer, 
    i32 0, 
    i32 0, 
    %struct.regmngobj* null, 
    i8 0, 
    %struct.regobj* null, 
    %struct.regobj* null }, align 32		; <%struct.regwayobj*> [#uses=16]
@regmng = internal global %struct.regmngobj zeroinitializer, align 32		; <%struct.regmngobj*> [#uses=50]
@way2 = internal global %struct.way2obj zeroinitializer, align 32		; <%struct.way2obj*> [#uses=38]
@.str1 = internal constant [33 x i8] c"Create regional map time : %.0f\0A\00"		; <[33 x i8]*> [#uses=1]
@.str12 = internal constant [25 x i8] c"Create ways time : %.0f\0A\00"		; <[25 x i8]*> [#uses=1]
@.str2 = internal constant [22 x i8] c"Ways quantity : %lld\0A\00"		; <[22 x i8]*> [#uses=1]
@.str3 = internal constant [25 x i8] c"Total way length : %lld\0A\00"		; <[25 x i8]*> [#uses=1]
@.str4 = internal constant [29 x i8] c"Create reg ways time : %.0f\0A\00"		; <[29 x i8]*> [#uses=1]
@.str5 = internal constant [26 x i8] c"Reg ways quantity : %lld\0A\00"		; <[26 x i8]*> [#uses=1]
@.str6 = internal constant [29 x i8] c"Total reg way length : %lld\0A\00"		; <[29 x i8]*> [#uses=1]
@.str7 = internal constant [31 x i8] c"Create river ways time : %.0f\0A\00"		; <[31 x i8]*> [#uses=1]
@.str8 = internal constant [28 x i8] c"River ways quantity : %lld\0A\00"		; <[28 x i8]*> [#uses=1]
@.str9 = internal constant [31 x i8] c"Total river way length : %lld\0A\00"		; <[31 x i8]*> [#uses=1]
@.str10 = internal constant [30 x i8] c"Create land ways time : %.0f\0A\00"		; <[30 x i8]*> [#uses=1]
@.str11 = internal constant [27 x i8] c"Land ways quantity : %lld\0A\00"		; <[27 x i8]*> [#uses=1]
@.str123 = internal constant [30 x i8] c"Total land way length : %lld\0A\00"		; <[30 x i8]*> [#uses=1]
@_ZTV9regwayobj = internal constant [5 x i32 (...)*] [ i32 (...)* null, i32 (...)* bitcast (%struct.__class_type_info_pseudo* @_ZTI9regwayobj to i32 (...)*), i32 (...)* bitcast (i8 (%struct.regwayobj*, %struct.regobj*, %struct.regobj*)* @_ZN9regwayobj12isaddtoboundEP6regobjS1_ to i32 (...)*), i32 (...)* bitcast (void (%struct.regwayobj*, %struct.regmngobj*)* @_ZN9regwayobj6createEP9regmngobj to i32 (...)*), i32 (...)* bitcast (void (%struct.regwayobj*)* @_ZN9regwayobj7destroyEv to i32 (...)*) ], align 32		; <[5 x i32 (...)*]*> [#uses=1]
@.str13 = internal constant [27 x i8] c"Small Path Finding Library\00"		; <[27 x i8]*> [#uses=1]
@.str14 = internal constant [24 x i8] c"Read configuration file\00"		; <[24 x i8]*> [#uses=1]
@.str15 = internal constant [36 x i8] c"Cannot read configuration file name\00"		; <[36 x i8]*> [#uses=1]
@.str16 = internal constant [2 x i8] c"r\00"		; <[2 x i8]*> [#uses=1]
@.str17 = internal constant [31 x i8] c"Cannot read configuration file\00"		; <[31 x i8]*> [#uses=1]
@.str18 = internal constant [3 x i8] c"%s\00"		; <[3 x i8]*> [#uses=1]
@.str19 = internal constant [3 x i8] c"%d\00"		; <[3 x i8]*> [#uses=1]
@.str20 = internal constant [3 x i8] c"%f\00"		; <[3 x i8]*> [#uses=1]
@.str21 = internal constant [12 x i8] c"Create ways\00"		; <[12 x i8]*> [#uses=1]
@.str22 = internal constant [11 x i8] c"Random map\00"		; <[11 x i8]*> [#uses=1]
@llvm.global_ctors = appending global [0 x { i32, void ()* }] zeroinitializer		; <[0 x { i32, void ()* }]*> [#uses=0]
@y3rnd = internal global i32 3007		; <i32*> [#uses=22]
@y2rnd = internal global i32 11		; <i32*> [#uses=22]
@y1rnd = internal global i32 1023		; <i32*> [#uses=22]
@_ZN6regobj9bound1arpE = internal global %struct.boundart zeroinitializer, align 16		; <%struct.boundart*> [#uses=5]
@_ZN6regobj6boundlE = internal global i32 0		; <i32*> [#uses=3]
@_ZN6regobj9bound2arpE = internal global %struct.boundart zeroinitializer, align 16		; <%struct.boundart*> [#uses=5]
@_ZTI9regwayobj = internal constant %struct.__class_type_info_pseudo { %struct.__type_info_pseudo { i8* inttoptr (i64 add (i64 ptrtoint ([0 x i32 (...)*]* @_ZTVN10__cxxabiv117__class_type_infoE to i64), i64 16) to i8*), i8* getelementptr ([11 x i8]* @_ZTS9regwayobj, i32 0, i32 0) } }, align 16		; <%struct.__class_type_info_pseudo*> [#uses=1]
@_ZTVN10__cxxabiv117__class_type_infoE = external constant [0 x i32 (...)*]		; <[0 x i32 (...)*]*> [#uses=1]
@_ZTS9regwayobj = internal constant [11 x i8] c"9regwayobj\00"		; <[11 x i8]*> [#uses=1]
@cg_caller_id_var = weak global i32 1		; <i32*> [#uses=780]
@cg_caller_call_site_var = weak global i32 0		; <i32*> [#uses=649]

define internal fastcc i8 @_ZN6wayobj9createwayEiiiiRP8point16tRi(i32 %startx, i32 %starty, i32 %endx, i32 %endy, %struct.point16t** %wayar, i32* %waylength) zeroext nounwind  {
entry:
	%val = load i32* @cg_caller_id_var, align 4		; <i32> [#uses=7]
	%val2 = load i32* @cg_caller_call_site_var, align 4		; <i32> [#uses=7]
	store i32 1, i32* @cg_caller_id_var, align 4
	call void @CallEdgeProfiler( i32 %val, i32 %val2, i32 1 )
	%deltaar.i = alloca [8 x %struct.point16t]		; <[8 x %struct.point16t]*> [#uses=20]
	%tmp2.i = icmp slt i32 %startx, 1		; <i1> [#uses=1]
	%tmp6.i = icmp slt i32 %starty, 1		; <i1> [#uses=1]
	%bothcond.i = or i1 %tmp6.i, %tmp2.i		; <i1> [#uses=1]
	br i1 %bothcond.i, label %cond_true21, label %cond_next11.i

cond_next11.i:		; preds = %entry
	%tmp14.i = load i32* @way.5, align 8		; <i32> [#uses=1]
	%tmp16.i = icmp slt i32 %tmp14.i, %startx		; <i1> [#uses=1]
	br i1 %tmp16.i, label %cond_true21, label %cond_next21.i

cond_next21.i:		; preds = %cond_next11.i
	%tmp25.i = load i32* @way.6, align 8		; <i32> [#uses=1]
	%phitmp23 = icmp slt i32 %tmp25.i, %starty		; <i1> [#uses=1]
	br i1 %phitmp23, label %cond_true21, label %cond_next

cond_next:		; preds = %cond_next21.i
	%tmp2.i10 = icmp slt i32 %endx, 1		; <i1> [#uses=1]
	%tmp6.i11 = icmp slt i32 %endy, 1		; <i1> [#uses=1]
	%bothcond.i12 = or i1 %tmp6.i11, %tmp2.i10		; <i1> [#uses=1]
	br i1 %bothcond.i12, label %cond_true21, label %cond_next11.i15

cond_next11.i15:		; preds = %cond_next
	%tmp14.i13 = load i32* @way.5, align 8		; <i32> [#uses=1]
	%tmp16.i14 = icmp slt i32 %tmp14.i13, %endx		; <i1> [#uses=1]
	br i1 %tmp16.i14, label %cond_true21, label %cond_next21.i19

cond_next21.i19:		; preds = %cond_next11.i15
	%tmp25.i16 = load i32* @way.6, align 8		; <i32> [#uses=1]
	%phitmp = icmp slt i32 %tmp25.i16, %endy		; <i1> [#uses=1]
	br i1 %phitmp, label %cond_true21, label %bb16

bb16:		; preds = %cond_next21.i19
	%tmp33 = load i16** @way.16, align 8		; <i16*> [#uses=1]
	%tmp36 = load i32* @way.2, align 8		; <i32> [#uses=1]
	%tmp38 = shl i32 %endy, %tmp36		; <i32> [#uses=1]
	%tmp40 = or i32 %tmp38, %endx		; <i32> [#uses=1]
	%tmp4041 = sext i32 %tmp40 to i64		; <i64> [#uses=1]
	%tmp42 = getelementptr i16* %tmp33, i64 %tmp4041		; <i16*> [#uses=1]
	%tmp46 = load i16* %tmp42, align 2		; <i16> [#uses=1]
	%tmp47 = icmp eq i16 %tmp46, 0		; <i1> [#uses=1]
	br i1 %tmp47, label %cond_next55, label %cond_true51

cond_true21:		; preds = %cond_next21.i19, %cond_next11.i15, %cond_next, %cond_next21.i, %cond_next11.i, %entry
	store %struct.point16t* null, %struct.point16t** %wayar, align 8
	store i32 0, i32* %waylength, align 4
	store i32 %val2, i32* @cg_caller_call_site_var, align 4
	store i32 %val, i32* @cg_caller_id_var, align 4
	ret i8 0

cond_true51:		; preds = %bb16
	store %struct.point16t* null, %struct.point16t** %wayar, align 8
	store i32 0, i32* %waylength, align 4
	store i32 %val2, i32* @cg_caller_call_site_var, align 4
	store i32 %val, i32* @cg_caller_id_var, align 4
	ret i8 0

cond_next55:		; preds = %bb16
	%tmp58 = icmp eq i32 %startx, %endx		; <i1> [#uses=1]
	%tmp62 = icmp eq i32 %starty, %endy		; <i1> [#uses=1]
	%tmp66 = and i1 %tmp62, %tmp58		; <i1> [#uses=1]
	br i1 %tmp66, label %cond_true69, label %cond_next75

cond_true69:		; preds = %cond_next55
	%tmp70 = malloc %struct.point16t		; <%struct.point16t*> [#uses=1]
	store %struct.point16t* %tmp70, %struct.point16t** %wayar, align 8
	store i32 1, i32* %waylength, align 4
	store i32 %val2, i32* @cg_caller_call_site_var, align 4
	store i32 %val, i32* @cg_caller_id_var, align 4
	ret i8 1

cond_next75:		; preds = %cond_next55
	%tmp5.i = load i16* @way.25, align 8		; <i16> [#uses=2]
	%tmp6.i4 = icmp eq i16 %tmp5.i, -1		; <i1> [#uses=1]
	br i1 %tmp6.i4, label %cond_true.i, label %cond_next.i

cond_true.i:		; preds = %cond_next75
	%tmp10.i = load i32* @way.0, align 32		; <i32> [#uses=1]
	%tmp11.i = shl i32 1, %tmp10.i		; <i32> [#uses=1]
	%tmp14.i5 = load i32* @way.1, align 8		; <i32> [#uses=1]
	%tmp15.i = shl i32 %tmp11.i, %tmp14.i5		; <i32> [#uses=1]
	%tmp1516.i = sext i32 %tmp15.i to i64		; <i64> [#uses=1]
	%tmp17.i = shl i64 %tmp1516.i, 2		; <i64> [#uses=1]
	%tmp20.i = load %struct.point16t** @way.17, align 8		; <%struct.point16t*> [#uses=1]
	%tmp2021.i = bitcast %struct.point16t* %tmp20.i to i8*		; <i8*> [#uses=1]
	store i32 0, i32* @cg_caller_call_site_var, align 4
	store i32 1, i32* @cg_caller_id_var, align 4
	tail call void @llvm.memset.i64( i8* %tmp2021.i, i8 0, i64 %tmp17.i, i32 2 ) nounwind 
	store i16 0, i16* @way.25, align 8
	br label %cond_next.i

cond_next.i:		; preds = %cond_true.i, %cond_next75
	%tmp26.rle.i = phi i16 [ 0, %cond_true.i ], [ %tmp5.i, %cond_next75 ]		; <i16> [#uses=1]
	%tmp27.i = add i16 %tmp26.rle.i, 1		; <i16> [#uses=4]
	store i16 %tmp27.i, i16* @way.25, align 8
	%tmp32.i = load i32** @way.18, align 8		; <i32*> [#uses=3]
	%tmp40.i = load i32* @way.2, align 8		; <i32> [#uses=9]
	%tmp42.i = shl i32 %starty, %tmp40.i		; <i32> [#uses=1]
	%tmp44.i = or i32 %tmp42.i, %startx		; <i32> [#uses=6]
	store i32 %tmp44.i, i32* %tmp32.i, align 4
	%tmp50.i6 = load %struct.point16t** @way.17, align 8		; <%struct.point16t*> [#uses=6]
	%tmp5758.i = sext i32 %tmp44.i to i64		; <i64> [#uses=2]
	%tmp63.i = getelementptr %struct.point16t* %tmp50.i6, i64 %tmp5758.i, i32 0		; <i16*> [#uses=1]
	store i16 %tmp27.i, i16* %tmp63.i, align 2
	%tmp77.i = getelementptr %struct.point16t* %tmp50.i6, i64 %tmp5758.i, i32 1		; <i16*> [#uses=1]
	store i16 0, i16* %tmp77.i, align 2
	store i1 false, i1* @way.22.b, align 1
	%tmp91.i = shl i32 %endy, %tmp40.i		; <i32> [#uses=1]
	%tmp93.i = or i32 %tmp91.i, %endx		; <i32> [#uses=4]
	store i32 %tmp93.i, i32* @way.23, align 8
	store i16 1, i16* @way.24, align 8
	%tmp110.i = load i32** @way.19, align 8		; <i32*> [#uses=2]
	br label %cond_next139.i

bb101.i:		; preds = %cond_next139.i
	%tmp104.i = icmp eq i8 %flodd.1.reg2mem.0.i, 0		; <i1> [#uses=1]
	br i1 %tmp104.i, label %cond_true107.i, label %cond_false.i8

cond_true107.i:		; preds = %bb101.i
	store i32 1, i32* @cg_caller_call_site_var, align 4
	store i32 1, i32* @cg_caller_id_var, align 4
	store i32 0, i32* @cg_caller_call_site_var, align 4
	store i32 31, i32* @cg_caller_id_var, align 4
	%tmp116.i = tail call fastcc i32 @_ZN6wayobj10makebound2EPiiS0_( i32* %tmp32.i, i32 %boundl.1.reg2mem.0.i, i32* %tmp110.i ) nounwind 		; <i32> [#uses=1]
	br label %bb133.i

cond_false.i8:		; preds = %bb101.i
	store i32 2, i32* @cg_caller_call_site_var, align 4
	store i32 1, i32* @cg_caller_id_var, align 4
	store i32 1, i32* @cg_caller_call_site_var, align 4
	store i32 31, i32* @cg_caller_id_var, align 4
	%tmp125.i = tail call fastcc i32 @_ZN6wayobj10makebound2EPiiS0_( i32* %tmp110.i, i32 %boundl.1.reg2mem.0.i, i32* %tmp32.i ) nounwind 		; <i32> [#uses=1]
	br label %bb133.i

bb133.i:		; preds = %cond_false.i8, %cond_true107.i
	%storemerge162.i = phi i8 [ 1, %cond_true107.i ], [ 0, %cond_false.i8 ]		; <i8> [#uses=1]
	%storemerge161.i = phi i32 [ %tmp116.i, %cond_true107.i ], [ %tmp125.i, %cond_false.i8 ]		; <i32> [#uses=2]
	%storemerge.i9 = add i16 %storemerge.in.i.rle24, 1		; <i16> [#uses=3]
	store i16 %storemerge.i9, i16* @way.24, align 2
	%tmp135.i = icmp eq i32 %storemerge161.i, 0		; <i1> [#uses=1]
	store i32 %val4, i32* @cg_caller_call_site_var, align 4
	store i32 %val3, i32* @cg_caller_id_var, align 4
	br i1 %tmp135.i, label %_ZN6wayobj4fillEiiii.exit, label %cond_next139.i

cond_next139.i:		; preds = %bb133.i, %cond_next.i
	%storemerge.in.i.rle24 = phi i16 [ %storemerge.i9, %bb133.i ], [ 1, %cond_next.i ]		; <i16> [#uses=2]
	%flodd.1.reg2mem.0.i = phi i8 [ 0, %cond_next.i ], [ %storemerge162.i, %bb133.i ]		; <i8> [#uses=1]
	%boundl.1.reg2mem.0.i = phi i32 [ 1, %cond_next.i ], [ %storemerge161.i, %bb133.i ]		; <i32> [#uses=2]
	%val3 = load i32* @cg_caller_id_var, align 4		; <i32> [#uses=3]
	%val4 = load i32* @cg_caller_call_site_var, align 4		; <i32> [#uses=3]
	store i32 31, i32* @cg_caller_id_var, align 4
	call void @CallEdgeProfiler( i32 %val3, i32 %val4, i32 31 )
	%tmp142.i.b = load i1* @way.22.b, align 1		; <i1> [#uses=1]
	store i32 %val4, i32* @cg_caller_call_site_var, align 4
	store i32 %val3, i32* @cg_caller_id_var, align 4
	br i1 %tmp142.i.b, label %_ZN6wayobj4fillEiiii.exit, label %bb101.i

_ZN6wayobj4fillEiiii.exit:		; preds = %cond_next139.i, %bb133.i
	%tmp132.i.rle = phi i16 [ %storemerge.in.i.rle24, %cond_next139.i ], [ %storemerge.i9, %bb133.i ]		; <i16> [#uses=1]
	%tmp150.i.b = load i1* @way.22.b, align 1		; <i1> [#uses=1]
	br i1 %tmp150.i.b, label %cond_next90, label %cond_true86

cond_true86:		; preds = %_ZN6wayobj4fillEiiii.exit
	store %struct.point16t* null, %struct.point16t** %wayar, align 8
	store i32 0, i32* %waylength, align 4
	store i32 %val2, i32* @cg_caller_call_site_var, align 4
	store i32 %val, i32* @cg_caller_id_var, align 4
	ret i8 0

cond_next90:		; preds = %_ZN6wayobj4fillEiiii.exit
	%tmp22.i = getelementptr [8 x %struct.point16t]* %deltaar.i, i32 0, i32 0, i32 0		; <i16*> [#uses=1]
	store i16 -1, i16* %tmp22.i, align 8
	%tmp25.i2 = getelementptr [8 x %struct.point16t]* %deltaar.i, i32 0, i32 0, i32 1		; <i16*> [#uses=1]
	store i16 1, i16* %tmp25.i2, align 2
	%tmp36.i = getelementptr [8 x %struct.point16t]* %deltaar.i, i32 0, i64 1, i32 0		; <i16*> [#uses=1]
	store i16 0, i16* %tmp36.i, align 2
	%tmp39.i = getelementptr [8 x %struct.point16t]* %deltaar.i, i32 0, i64 1, i32 1		; <i16*> [#uses=1]
	store i16 1, i16* %tmp39.i, align 2
	%tmp50.i = getelementptr [8 x %struct.point16t]* %deltaar.i, i32 0, i64 2, i32 0		; <i16*> [#uses=1]
	store i16 1, i16* %tmp50.i, align 2
	%tmp53.i = getelementptr [8 x %struct.point16t]* %deltaar.i, i32 0, i64 2, i32 1		; <i16*> [#uses=1]
	store i16 1, i16* %tmp53.i, align 2
	%tmp64.i = getelementptr [8 x %struct.point16t]* %deltaar.i, i32 0, i64 3, i32 0		; <i16*> [#uses=1]
	store i16 1, i16* %tmp64.i, align 2
	%tmp67.i = getelementptr [8 x %struct.point16t]* %deltaar.i, i32 0, i64 3, i32 1		; <i16*> [#uses=1]
	store i16 0, i16* %tmp67.i, align 2
	%tmp78.i = getelementptr [8 x %struct.point16t]* %deltaar.i, i32 0, i64 4, i32 0		; <i16*> [#uses=1]
	store i16 1, i16* %tmp78.i, align 2
	%tmp81.i = getelementptr [8 x %struct.point16t]* %deltaar.i, i32 0, i64 4, i32 1		; <i16*> [#uses=1]
	store i16 -1, i16* %tmp81.i, align 2
	%tmp92.i = getelementptr [8 x %struct.point16t]* %deltaar.i, i32 0, i64 5, i32 0		; <i16*> [#uses=1]
	store i16 0, i16* %tmp92.i, align 2
	%tmp95.i = getelementptr [8 x %struct.point16t]* %deltaar.i, i32 0, i64 5, i32 1		; <i16*> [#uses=1]
	store i16 -1, i16* %tmp95.i, align 2
	%tmp106.i = getelementptr [8 x %struct.point16t]* %deltaar.i, i32 0, i64 6, i32 0		; <i16*> [#uses=1]
	store i16 -1, i16* %tmp106.i, align 2
	%tmp109.i = getelementptr [8 x %struct.point16t]* %deltaar.i, i32 0, i64 6, i32 1		; <i16*> [#uses=1]
	store i16 -1, i16* %tmp109.i, align 2
	%tmp120.i = getelementptr [8 x %struct.point16t]* %deltaar.i, i32 0, i64 7, i32 0		; <i16*> [#uses=1]
	store i16 -1, i16* %tmp120.i, align 2
	%tmp123.i = getelementptr [8 x %struct.point16t]* %deltaar.i, i32 0, i64 7, i32 1		; <i16*> [#uses=1]
	store i16 0, i16* %tmp123.i, align 2
	%tmp132133.i = sext i16 %tmp132.i.rle to i32		; <i32> [#uses=4]
	%tmp137.i = malloc %struct.point16t, i32 %tmp132133.i		; <%struct.point16t*> [#uses=1]
	store %struct.point16t* %tmp137.i, %struct.point16t** %wayar, align 8
	%tmp154.i = load i32* @way.21, align 8		; <i32> [#uses=5]
	%tmp156.i = and i32 %tmp154.i, %tmp44.i		; <i32> [#uses=1]
	%tmp168.i = ashr i32 %tmp44.i, %tmp40.i		; <i32> [#uses=1]
	%tmp173.i = add i32 %tmp132133.i, -2		; <i32> [#uses=2]
	%tmp564683.i = icmp sgt i32 %tmp173.i, 0		; <i1> [#uses=1]
	br i1 %tmp564683.i, label %bb174.i, label %bb567.i

bb174.i:		; preds = %bb562.i, %cond_next90
	%tmp592.i.rle55 = phi i32 [ %tmp592.i.rle50, %bb562.i ], [ %tmp154.i, %cond_next90 ]		; <i32> [#uses=9]
	%tmp577.i.rle44 = phi i32 [ %tmp577.i.rle39, %bb562.i ], [ %tmp40.i, %cond_next90 ]		; <i32> [#uses=9]
	%indvar.i = phi i32 [ %indvar.next.i, %bb562.i ], [ 0, %cond_next90 ]		; <i32> [#uses=2]
	%index.1.reg2mem.0.i = phi i32 [ %index.0.reg2mem.0.i, %bb562.i ], [ %tmp93.i, %cond_next90 ]		; <i32> [#uses=2]
	%val31 = load i32* @cg_caller_id_var, align 4		; <i32> [#uses=3]
	%val42 = load i32* @cg_caller_call_site_var, align 4		; <i32> [#uses=3]
	store i32 32, i32* @cg_caller_id_var, align 4
	call void @CallEdgeProfiler( i32 %val31, i32 %val42, i32 32 )
	%i.0.reg2mem.0.i = sub i32 %tmp173.i, %indvar.i		; <i32> [#uses=5]
	%tmp184.i = and i32 %tmp154.i, %index.1.reg2mem.0.i		; <i32> [#uses=3]
	%tmp197.i = ashr i32 %index.1.reg2mem.0.i, %tmp40.i		; <i32> [#uses=3]
	%tmp203.i = sub i32 %tmp156.i, %tmp184.i		; <i32> [#uses=3]
	%tmp206.i = sub i32 %tmp168.i, %tmp197.i		; <i32> [#uses=3]
	%tmp208.i = icmp sgt i32 %tmp203.i, 0		; <i1> [#uses=1]
	br i1 %tmp208.i, label %cond_next215.i, label %cond_false.i

cond_false.i:		; preds = %bb174.i
	%tmp211.i = icmp slt i32 %tmp203.i, 0		; <i1> [#uses=1]
	br i1 %tmp211.i, label %cond_true214.i, label %cond_next215.i

cond_true214.i:		; preds = %cond_false.i
	br label %cond_next215.i

cond_next215.i:		; preds = %cond_true214.i, %cond_false.i, %bb174.i
	%dpx.0.i = phi i32 [ -1, %cond_true214.i ], [ 1, %bb174.i ], [ %tmp203.i, %cond_false.i ]		; <i32> [#uses=4]
	%tmp217.i = icmp sgt i32 %tmp206.i, 0		; <i1> [#uses=1]
	br i1 %tmp217.i, label %cond_next228.i, label %cond_false221.i

cond_false221.i:		; preds = %cond_next215.i
	%tmp223.i = icmp slt i32 %tmp206.i, 0		; <i1> [#uses=1]
	br i1 %tmp223.i, label %cond_true226.i, label %cond_next228.i

cond_true226.i:		; preds = %cond_false221.i
	br label %cond_next228.i

cond_next228.i:		; preds = %cond_true226.i, %cond_false221.i, %cond_next215.i
	%dpy.0.i = phi i32 [ -1, %cond_true226.i ], [ 1, %cond_next215.i ], [ %tmp206.i, %cond_false221.i ]		; <i32> [#uses=1]
	%tmp230.i = mul i32 %dpy.0.i, 100		; <i32> [#uses=4]
	%tmp233.i = mul i32 %dpx.0.i, 241		; <i32> [#uses=1]
	%tmp234.i = icmp slt i32 %tmp230.i, %tmp233.i		; <i1> [#uses=1]
	%a.0.i = select i1 %tmp234.i, i32 -1, i32 1		; <i32> [#uses=2]
	%tmp244.i = mul i32 %dpx.0.i, 41		; <i32> [#uses=1]
	%tmp245.i = icmp slt i32 %tmp230.i, %tmp244.i		; <i1> [#uses=1]
	%b.0.i = select i1 %tmp245.i, i32 -1, i32 1		; <i32> [#uses=2]
	%tmp255.i = mul i32 %dpx.0.i, -40		; <i32> [#uses=1]
	%tmp256.i = icmp slt i32 %tmp230.i, %tmp255.i		; <i1> [#uses=1]
	%c.0.i = select i1 %tmp256.i, i32 -1, i32 1		; <i32> [#uses=2]
	%tmp266.i = mul i32 %dpx.0.i, -240		; <i32> [#uses=1]
	%tmp267.i = icmp slt i32 %tmp230.i, %tmp266.i		; <i1> [#uses=1]
	%d.0.i = select i1 %tmp267.i, i32 -1, i32 1		; <i32> [#uses=2]
	%tmp274.i = icmp eq i32 %a.0.i, 1		; <i1> [#uses=2]
	%tmp277.i = icmp eq i32 %d.0.i, 1		; <i1> [#uses=2]
	%tmp281.i = and i1 %tmp274.i, %tmp277.i		; <i1> [#uses=1]
	br i1 %tmp281.i, label %bb549.i, label %cond_next285.i

cond_next285.i:		; preds = %cond_next228.i
	%tmp287.i = icmp eq i32 %b.0.i, 1		; <i1> [#uses=2]
	%tmp290.i = icmp eq i32 %a.0.i, -1		; <i1> [#uses=2]
	%tmp294.i = and i1 %tmp287.i, %tmp290.i		; <i1> [#uses=1]
	br i1 %tmp294.i, label %bb549.i, label %cond_next298.i

cond_next298.i:		; preds = %cond_next285.i
	%tmp300.i = icmp eq i32 %c.0.i, 1		; <i1> [#uses=2]
	%tmp303.i = icmp eq i32 %b.0.i, -1		; <i1> [#uses=2]
	%tmp307.i = and i1 %tmp300.i, %tmp303.i		; <i1> [#uses=1]
	br i1 %tmp307.i, label %bb549.i, label %cond_next311.i

cond_next311.i:		; preds = %cond_next298.i
	%tmp316.i = icmp eq i32 %c.0.i, -1		; <i1> [#uses=2]
	%tmp320.i = and i1 %tmp277.i, %tmp316.i		; <i1> [#uses=1]
	br i1 %tmp320.i, label %bb549.i, label %cond_next324.i

cond_next324.i:		; preds = %cond_next311.i
	%tmp329.i = icmp eq i32 %d.0.i, -1		; <i1> [#uses=2]
	%tmp333.i = and i1 %tmp290.i, %tmp329.i		; <i1> [#uses=1]
	br i1 %tmp333.i, label %bb549.i, label %cond_next337.i

cond_next337.i:		; preds = %cond_next324.i
	%tmp346.i = and i1 %tmp274.i, %tmp303.i		; <i1> [#uses=1]
	br i1 %tmp346.i, label %bb549.i, label %cond_next350.i

cond_next350.i:		; preds = %cond_next337.i
	%tmp359.i = and i1 %tmp287.i, %tmp316.i		; <i1> [#uses=1]
	br i1 %tmp359.i, label %bb549.i, label %cond_next363.i

cond_next363.i:		; preds = %cond_next350.i
	%tmp372.i = and i1 %tmp300.i, %tmp329.i		; <i1> [#uses=1]
	br i1 %tmp372.i, label %bb549.i, label %bb381.i

bb381.i:		; preds = %bb549.i, %cond_next363.i
	%tmp592.i.rle50 = phi i32 [ %tmp592.i.rle51, %bb549.i ], [ %tmp592.i.rle55, %cond_next363.i ]		; <i32> [#uses=2]
	%tmp577.i.rle39 = phi i32 [ %tmp577.i.rle40, %bb549.i ], [ %tmp577.i.rle44, %cond_next363.i ]		; <i32> [#uses=2]
	%delta1num.0.reg2mem.0.i = phi i32 [ 6, %cond_next363.i ], [ %delta1num.0.i, %bb549.i ]		; <i32> [#uses=2]
	%delta2num.0.in.in.reg2mem.0.i = phi i32 [ 7, %cond_next363.i ], [ %delta2num.0.in.in.i, %bb549.i ]		; <i32> [#uses=2]
	%j.0.reg2mem.0.i = phi i32 [ 0, %cond_next363.i ], [ %j.0.i, %bb549.i ]		; <i32> [#uses=1]
	%tmp382383.i = sext i32 %delta1num.0.reg2mem.0.i to i64		; <i64> [#uses=2]
	%tmp385.i = getelementptr [8 x %struct.point16t]* %deltaar.i, i32 0, i64 %tmp382383.i, i32 0		; <i16*> [#uses=1]
	%tmp386.i = load i16* %tmp385.i, align 2		; <i16> [#uses=1]
	%tmp386387.i = sext i16 %tmp386.i to i32		; <i32> [#uses=1]
	%tmp389.i = add i32 %tmp386387.i, %tmp184.i		; <i32> [#uses=2]
	%tmp393.i = getelementptr [8 x %struct.point16t]* %deltaar.i, i32 0, i64 %tmp382383.i, i32 1		; <i16*> [#uses=1]
	%tmp394.i = load i16* %tmp393.i, align 2		; <i16> [#uses=1]
	%tmp394395.i = sext i16 %tmp394.i to i32		; <i32> [#uses=1]
	%tmp397.i = add i32 %tmp394395.i, %tmp197.i		; <i32> [#uses=2]
	%tmp409.i = shl i32 %tmp397.i, %tmp40.i		; <i32> [#uses=1]
	%tmp411.i = or i32 %tmp409.i, %tmp389.i		; <i32> [#uses=2]
	%tmp416417.i = sext i32 %tmp411.i to i64		; <i64> [#uses=2]
	%tmp419.i = getelementptr %struct.point16t* %tmp50.i6, i64 %tmp416417.i, i32 0		; <i16*> [#uses=1]
	%tmp420.i = load i16* %tmp419.i, align 2		; <i16> [#uses=1]
	%tmp424.i = icmp eq i16 %tmp420.i, %tmp27.i		; <i1> [#uses=1]
	br i1 %tmp424.i, label %cond_true427.i, label %cond_next458.i

cond_true427.i:		; preds = %bb381.i
	%tmp432.i = getelementptr %struct.point16t* %tmp50.i6, i64 %tmp416417.i, i32 1		; <i16*> [#uses=1]
	%tmp433.i = load i16* %tmp432.i, align 2		; <i16> [#uses=1]
	%tmp433434.i = zext i16 %tmp433.i to i32		; <i32> [#uses=1]
	%tmp436.i = icmp eq i32 %tmp433434.i, %i.0.reg2mem.0.i		; <i1> [#uses=1]
	br i1 %tmp436.i, label %cond_true439.i, label %cond_next458.i

cond_true439.i:		; preds = %cond_true427.i
	%tmp441.i = load %struct.point16t** %wayar, align 8		; <%struct.point16t*> [#uses=1]
	%tmp442443.i = sext i32 %i.0.reg2mem.0.i to i64		; <i64> [#uses=2]
	%tmp445446.i = trunc i32 %tmp389.i to i16		; <i16> [#uses=1]
	%tmp447.i = getelementptr %struct.point16t* %tmp441.i, i64 %tmp442443.i, i32 0		; <i16*> [#uses=1]
	store i16 %tmp445446.i, i16* %tmp447.i, align 2
	%tmp449.i = load %struct.point16t** %wayar, align 8		; <%struct.point16t*> [#uses=1]
	%tmp453454.i = trunc i32 %tmp397.i to i16		; <i16> [#uses=1]
	%tmp455.i = getelementptr %struct.point16t* %tmp449.i, i64 %tmp442443.i, i32 1		; <i16*> [#uses=1]
	store i16 %tmp453454.i, i16* %tmp455.i, align 2
	br label %bb562.i

cond_next458.i:		; preds = %cond_true427.i, %bb381.i
	%tmp459460671.i = zext i32 %delta2num.0.in.in.reg2mem.0.i to i64		; <i64> [#uses=2]
	%tmp462.i = getelementptr [8 x %struct.point16t]* %deltaar.i, i32 0, i64 %tmp459460671.i, i32 0		; <i16*> [#uses=1]
	%tmp463.i = load i16* %tmp462.i, align 2		; <i16> [#uses=1]
	%tmp463464.i = sext i16 %tmp463.i to i32		; <i32> [#uses=1]
	%tmp466.i = add i32 %tmp463464.i, %tmp184.i		; <i32> [#uses=2]
	%tmp470.i = getelementptr [8 x %struct.point16t]* %deltaar.i, i32 0, i64 %tmp459460671.i, i32 1		; <i16*> [#uses=1]
	%tmp471.i = load i16* %tmp470.i, align 2		; <i16> [#uses=1]
	%tmp471472.i = sext i16 %tmp471.i to i32		; <i32> [#uses=1]
	%tmp474.i = add i32 %tmp471472.i, %tmp197.i		; <i32> [#uses=2]
	%tmp486.i = shl i32 %tmp474.i, %tmp40.i		; <i32> [#uses=1]
	%tmp488.i = or i32 %tmp486.i, %tmp466.i		; <i32> [#uses=2]
	%tmp493494.i = sext i32 %tmp488.i to i64		; <i64> [#uses=2]
	%tmp496.i = getelementptr %struct.point16t* %tmp50.i6, i64 %tmp493494.i, i32 0		; <i16*> [#uses=1]
	%tmp497.i = load i16* %tmp496.i, align 2		; <i16> [#uses=1]
	%tmp501.i = icmp eq i16 %tmp497.i, %tmp27.i		; <i1> [#uses=1]
	br i1 %tmp501.i, label %cond_true504.i, label %cond_next535.i

cond_true504.i:		; preds = %cond_next458.i
	%tmp509.i = getelementptr %struct.point16t* %tmp50.i6, i64 %tmp493494.i, i32 1		; <i16*> [#uses=1]
	%tmp510.i = load i16* %tmp509.i, align 2		; <i16> [#uses=1]
	%tmp510511.i = zext i16 %tmp510.i to i32		; <i32> [#uses=1]
	%tmp513.i = icmp eq i32 %tmp510511.i, %i.0.reg2mem.0.i		; <i1> [#uses=1]
	br i1 %tmp513.i, label %cond_true516.i, label %cond_next535.i

cond_true516.i:		; preds = %cond_true504.i
	%tmp518.i = load %struct.point16t** %wayar, align 8		; <%struct.point16t*> [#uses=1]
	%tmp519520.i = sext i32 %i.0.reg2mem.0.i to i64		; <i64> [#uses=2]
	%tmp522523.i = trunc i32 %tmp466.i to i16		; <i16> [#uses=1]
	%tmp524.i = getelementptr %struct.point16t* %tmp518.i, i64 %tmp519520.i, i32 0		; <i16*> [#uses=1]
	store i16 %tmp522523.i, i16* %tmp524.i, align 2
	%tmp526.i = load %struct.point16t** %wayar, align 8		; <%struct.point16t*> [#uses=1]
	%tmp530531.i = trunc i32 %tmp474.i to i16		; <i16> [#uses=1]
	%tmp532.i = getelementptr %struct.point16t* %tmp526.i, i64 %tmp519520.i, i32 1		; <i16*> [#uses=1]
	store i16 %tmp530531.i, i16* %tmp532.i, align 2
	br label %bb562.i

cond_next535.i:		; preds = %cond_true504.i, %cond_next458.i
	%tmp537.i = add i32 %delta1num.0.reg2mem.0.i, -1		; <i32> [#uses=2]
	%tmp539.i = icmp slt i32 %tmp537.i, 0		; <i1> [#uses=1]
	%delta1num.1.i = select i1 %tmp539.i, i32 7, i32 %tmp537.i		; <i32> [#uses=1]
	%tmp548.i = add i32 %j.0.reg2mem.0.i, 1		; <i32> [#uses=1]
	%phitmp.i = add i32 %delta2num.0.in.in.reg2mem.0.i, 1		; <i32> [#uses=1]
	%phitmp672.i = and i32 %phitmp.i, 7		; <i32> [#uses=1]
	br label %bb549.i

bb549.i:		; preds = %cond_next535.i, %cond_next363.i, %cond_next350.i, %cond_next337.i, %cond_next324.i, %cond_next311.i, %cond_next298.i, %cond_next285.i, %cond_next228.i
	%tmp592.i.rle51 = phi i32 [ %tmp592.i.rle50, %cond_next535.i ], [ %tmp592.i.rle55, %cond_next363.i ], [ %tmp592.i.rle55, %cond_next350.i ], [ %tmp592.i.rle55, %cond_next337.i ], [ %tmp592.i.rle55, %cond_next324.i ], [ %tmp592.i.rle55, %cond_next311.i ], [ %tmp592.i.rle55, %cond_next298.i ], [ %tmp592.i.rle55, %cond_next285.i ], [ %tmp592.i.rle55, %cond_next228.i ]		; <i32> [#uses=1]
	%tmp577.i.rle40 = phi i32 [ %tmp577.i.rle39, %cond_next535.i ], [ %tmp577.i.rle44, %cond_next363.i ], [ %tmp577.i.rle44, %cond_next350.i ], [ %tmp577.i.rle44, %cond_next337.i ], [ %tmp577.i.rle44, %cond_next324.i ], [ %tmp577.i.rle44, %cond_next311.i ], [ %tmp577.i.rle44, %cond_next298.i ], [ %tmp577.i.rle44, %cond_next285.i ], [ %tmp577.i.rle44, %cond_next228.i ]		; <i32> [#uses=1]
	%delta1num.0.i = phi i32 [ %delta1num.1.i, %cond_next535.i ], [ 1, %cond_next228.i ], [ 2, %cond_next285.i ], [ 3, %cond_next298.i ], [ 4, %cond_next311.i ], [ 5, %cond_next324.i ], [ 6, %cond_next337.i ], [ 7, %cond_next350.i ], [ 0, %cond_next363.i ]		; <i32> [#uses=1]
	%delta2num.0.in.in.i = phi i32 [ %phitmp672.i, %cond_next535.i ], [ 2, %cond_next228.i ], [ 3, %cond_next285.i ], [ 4, %cond_next298.i ], [ 5, %cond_next311.i ], [ 6, %cond_next324.i ], [ 7, %cond_next337.i ], [ 0, %cond_next350.i ], [ 1, %cond_next363.i ]		; <i32> [#uses=1]
	%j.0.i = phi i32 [ %tmp548.i, %cond_next535.i ], [ 0, %cond_next228.i ], [ 0, %cond_next285.i ], [ 0, %cond_next298.i ], [ 0, %cond_next311.i ], [ 0, %cond_next324.i ], [ 0, %cond_next337.i ], [ 0, %cond_next350.i ], [ 0, %cond_next363.i ]		; <i32> [#uses=2]
	%tmp551.i = icmp slt i32 %j.0.i, 4		; <i1> [#uses=1]
	store i32 %val42, i32* @cg_caller_call_site_var, align 4
	store i32 %val31, i32* @cg_caller_id_var, align 4
	br i1 %tmp551.i, label %bb381.i, label %bb554.i

bb554.i:		; preds = %bb549.i
	%tmp556.i = load %struct.point16t** %wayar, align 8		; <%struct.point16t*> [#uses=1]
	free %struct.point16t* %tmp556.i
	store %struct.point16t* null, %struct.point16t** %wayar, align 8
	store i32 0, i32* %waylength, align 4
	store i32 %val2, i32* @cg_caller_call_site_var, align 4
	store i32 %val, i32* @cg_caller_id_var, align 4
	ret i8 0

bb562.i:		; preds = %cond_true516.i, %cond_true439.i
	%index.0.reg2mem.0.i = phi i32 [ %tmp488.i, %cond_true516.i ], [ %tmp411.i, %cond_true439.i ]		; <i32> [#uses=1]
	%storemerge.i = add i32 %i.0.reg2mem.0.i, -1		; <i32> [#uses=1]
	%tmp564.i = icmp sgt i32 %storemerge.i, 0		; <i1> [#uses=1]
	%indvar.next.i = add i32 %indvar.i, 1		; <i32> [#uses=1]
	store i32 %val42, i32* @cg_caller_call_site_var, align 4
	store i32 %val31, i32* @cg_caller_id_var, align 4
	br i1 %tmp564.i, label %bb174.i, label %bb567.i

bb567.i:		; preds = %bb562.i, %cond_next90
	%tmp569.i = load %struct.point16t** %wayar, align 8		; <%struct.point16t*> [#uses=2]
	%tmp579.i = ashr i32 %tmp44.i, %tmp40.i		; <i32> [#uses=1]
	%tmp594.i = and i32 %tmp154.i, %tmp44.i		; <i32> [#uses=1]
	%tmp597598599602.i = trunc i32 %tmp594.i to i16		; <i16> [#uses=1]
	%tmp582583584603.i = trunc i32 %tmp579.i to i16		; <i16> [#uses=1]
	%tmp609.i = getelementptr %struct.point16t* %tmp569.i, i32 0, i32 0		; <i16*> [#uses=1]
	store i16 %tmp597598599602.i, i16* %tmp609.i, align 2
	%tmp612.i = getelementptr %struct.point16t* %tmp569.i, i32 0, i32 1		; <i16*> [#uses=1]
	store i16 %tmp582583584603.i, i16* %tmp612.i, align 2
	%tmp616.i = load %struct.point16t** %wayar, align 8		; <%struct.point16t*> [#uses=2]
	%tmp618.i = add i32 %tmp132133.i, -1		; <i32> [#uses=1]
	%tmp628.i = ashr i32 %tmp93.i, %tmp40.i		; <i32> [#uses=1]
	%tmp643.i = and i32 %tmp154.i, %tmp93.i		; <i32> [#uses=1]
	%tmp646647648651.i = trunc i32 %tmp643.i to i16		; <i16> [#uses=1]
	%tmp631632633652.i = trunc i32 %tmp628.i to i16		; <i16> [#uses=1]
	%tmp618657.i = sext i32 %tmp618.i to i64		; <i64> [#uses=2]
	%tmp659.i = getelementptr %struct.point16t* %tmp616.i, i64 %tmp618657.i, i32 0		; <i16*> [#uses=1]
	store i16 %tmp646647648651.i, i16* %tmp659.i, align 2
	%tmp662.i = getelementptr %struct.point16t* %tmp616.i, i64 %tmp618657.i, i32 1		; <i16*> [#uses=1]
	store i16 %tmp631632633652.i, i16* %tmp662.i, align 2
	store i32 %tmp132133.i, i32* %waylength, align 4
	store i32 %val2, i32* @cg_caller_call_site_var, align 4
	store i32 %val, i32* @cg_caller_id_var, align 4
	ret i8 1
}

declare i8* @_Znam(i64)

declare void @_ZdaPv(i8*) nounwind 

define internal fastcc i8 @_ZN6wayobj13findfreepointEiiRiS0_(i32 %startx, i32 %starty, i32* %freepointx, i32* %freepointy) zeroext nounwind  {
entry:
	%val = load i32* @cg_caller_id_var, align 4		; <i32> [#uses=4]
	%val2 = load i32* @cg_caller_call_site_var, align 4		; <i32> [#uses=4]
	store i32 2, i32* @cg_caller_id_var, align 4
	call void @CallEdgeProfiler( i32 %val, i32 %val2, i32 2 )
	%tmp12 = icmp slt i32 %startx, 1		; <i1> [#uses=1]
	%tmp16 = icmp slt i32 %starty, 1		; <i1> [#uses=1]
	%bothcond = or i1 %tmp16, %tmp12		; <i1> [#uses=1]
	br i1 %bothcond, label %cond_true49, label %cond_next21

cond_next21:		; preds = %entry
	%tmp24 = load i32* @way.5, align 8		; <i32> [#uses=1]
	%tmp26 = icmp slt i32 %tmp24, %startx		; <i1> [#uses=1]
	br i1 %tmp26, label %cond_true49, label %cond_next31

cond_next31:		; preds = %cond_next21
	%tmp34 = load i32* @way.6, align 8		; <i32> [#uses=1]
	%tmp36 = icmp slt i32 %tmp34, %starty		; <i1> [#uses=1]
	br i1 %tmp36, label %cond_true49, label %cond_next41

cond_next41:		; preds = %cond_next31
	%tmp65 = load i16** @way.16, align 8		; <i16*> [#uses=1]
	%tmp68 = load i32* @way.2, align 8		; <i32> [#uses=1]
	%tmp70 = shl i32 %starty, %tmp68		; <i32> [#uses=1]
	%tmp72 = or i32 %tmp70, %startx		; <i32> [#uses=1]
	%tmp7273 = sext i32 %tmp72 to i64		; <i64> [#uses=1]
	%tmp74 = getelementptr i16* %tmp65, i64 %tmp7273		; <i16*> [#uses=1]
	%tmp78 = load i16* %tmp74, align 2		; <i16> [#uses=1]
	%tmp79 = icmp eq i16 %tmp78, 0		; <i1> [#uses=1]
	br i1 %tmp79, label %cond_true83, label %cond_next89

cond_true49:		; preds = %cond_next31, %cond_next21, %entry
	store i32 %startx, i32* %freepointx, align 4
	store i32 %starty, i32* %freepointy, align 4
	store i32 %val2, i32* @cg_caller_call_site_var, align 4
	store i32 %val, i32* @cg_caller_id_var, align 4
	ret i8 1

cond_true83:		; preds = %cond_next41
	store i32 %startx, i32* %freepointx, align 4
	store i32 %starty, i32* %freepointy, align 4
	store i32 %val2, i32* @cg_caller_call_site_var, align 4
	store i32 %val, i32* @cg_caller_id_var, align 4
	ret i8 1

cond_next89:		; preds = %cond_next41
	%tmp92 = load i16* @way.25, align 8		; <i16> [#uses=2]
	%tmp93 = icmp eq i16 %tmp92, -1		; <i1> [#uses=1]
	br i1 %tmp93, label %cond_true96, label %cond_next113

cond_true96:		; preds = %cond_next89
	%tmp99 = load i32* @way.0, align 32		; <i32> [#uses=1]
	%tmp100 = shl i32 1, %tmp99		; <i32> [#uses=1]
	%tmp103 = load i32* @way.1, align 8		; <i32> [#uses=1]
	%tmp104 = shl i32 %tmp100, %tmp103		; <i32> [#uses=1]
	%tmp104105 = sext i32 %tmp104 to i64		; <i64> [#uses=1]
	%tmp106 = shl i64 %tmp104105, 2		; <i64> [#uses=1]
	%tmp109 = load %struct.point16t** @way.17, align 8		; <%struct.point16t*> [#uses=1]
	%tmp109110 = bitcast %struct.point16t* %tmp109 to i8*		; <i8*> [#uses=1]
	store i32 0, i32* @cg_caller_call_site_var, align 4
	store i32 2, i32* @cg_caller_id_var, align 4
	tail call void @llvm.memset.i64( i8* %tmp109110, i8 0, i64 %tmp106, i32 2 )
	store i16 0, i16* @way.25, align 8
	br label %cond_next113

cond_next113:		; preds = %cond_true96, %cond_next89
	%tmp116.rle = phi i16 [ 0, %cond_true96 ], [ %tmp92, %cond_next89 ]		; <i16> [#uses=1]
	%tmp117 = add i16 %tmp116.rle, 1		; <i16> [#uses=2]
	store i16 %tmp117, i16* @way.25, align 8
	%tmp122 = load i32** @way.18, align 8		; <i32*> [#uses=3]
	%tmp132 = load i32* @way.2, align 8		; <i32> [#uses=2]
	%tmp134 = shl i32 %starty, %tmp132		; <i32> [#uses=1]
	%tmp136 = or i32 %tmp134, %startx		; <i32> [#uses=2]
	store i32 %tmp136, i32* %tmp122, align 4
	%tmp143 = load %struct.point16t** @way.17, align 8		; <%struct.point16t*> [#uses=2]
	%tmp150151 = sext i32 %tmp136 to i64		; <i64> [#uses=2]
	%tmp156 = getelementptr %struct.point16t* %tmp143, i64 %tmp150151, i32 0		; <i16*> [#uses=1]
	store i16 %tmp117, i16* %tmp156, align 2
	%tmp169 = getelementptr %struct.point16t* %tmp143, i64 %tmp150151, i32 1		; <i16*> [#uses=1]
	store i16 0, i16* %tmp169, align 2
	store i1 false, i1* @way.22.b, align 1
	store i16 1, i16* @way.24, align 8
	%tmp183 = load i32** @way.19, align 8		; <i32*> [#uses=2]
	br label %cond_next212

bb174:		; preds = %cond_next212
	%tmp177 = icmp eq i8 %flodd.1.reg2mem.0, 0		; <i1> [#uses=1]
	br i1 %tmp177, label %cond_true180, label %cond_false

cond_true180:		; preds = %bb174
	store i32 1, i32* @cg_caller_call_site_var, align 4
	store i32 2, i32* @cg_caller_id_var, align 4
	store i32 0, i32* @cg_caller_call_site_var, align 4
	store i32 33, i32* @cg_caller_id_var, align 4
	%tmp189 = tail call fastcc i32 @_ZN6wayobj18makeobstaclebound2EPiiS0_( i32* %tmp122, i32 %boundl.1.reg2mem.0, i32* %tmp183 ) nounwind 		; <i32> [#uses=1]
	br label %bb206

cond_false:		; preds = %bb174
	store i32 2, i32* @cg_caller_call_site_var, align 4
	store i32 2, i32* @cg_caller_id_var, align 4
	store i32 1, i32* @cg_caller_call_site_var, align 4
	store i32 33, i32* @cg_caller_id_var, align 4
	%tmp198 = tail call fastcc i32 @_ZN6wayobj18makeobstaclebound2EPiiS0_( i32* %tmp183, i32 %boundl.1.reg2mem.0, i32* %tmp122 ) nounwind 		; <i32> [#uses=1]
	br label %bb206

bb206:		; preds = %cond_false, %cond_true180
	%storemerge266 = phi i8 [ 1, %cond_true180 ], [ 0, %cond_false ]		; <i8> [#uses=1]
	%storemerge265 = phi i32 [ %tmp189, %cond_true180 ], [ %tmp198, %cond_false ]		; <i32> [#uses=2]
	%storemerge = add i16 %storemerge.in.rle1, 1		; <i16> [#uses=2]
	store i16 %storemerge, i16* @way.24, align 2
	%tmp208 = icmp eq i32 %storemerge265, 0		; <i1> [#uses=1]
	store i32 %val4, i32* @cg_caller_call_site_var, align 4
	store i32 %val3, i32* @cg_caller_id_var, align 4
	br i1 %tmp208, label %bb220, label %cond_next212

cond_next212:		; preds = %bb206, %cond_next113
	%storemerge.in.rle1 = phi i16 [ %storemerge, %bb206 ], [ 1, %cond_next113 ]		; <i16> [#uses=1]
	%flodd.1.reg2mem.0 = phi i8 [ 0, %cond_next113 ], [ %storemerge266, %bb206 ]		; <i8> [#uses=1]
	%boundl.1.reg2mem.0 = phi i32 [ 1, %cond_next113 ], [ %storemerge265, %bb206 ]		; <i32> [#uses=2]
	%val3 = load i32* @cg_caller_id_var, align 4		; <i32> [#uses=3]
	%val4 = load i32* @cg_caller_call_site_var, align 4		; <i32> [#uses=3]
	store i32 33, i32* @cg_caller_id_var, align 4
	call void @CallEdgeProfiler( i32 %val3, i32 %val4, i32 33 )
	%tmp215.b = load i1* @way.22.b, align 1		; <i1> [#uses=1]
	store i32 %val4, i32* @cg_caller_call_site_var, align 4
	store i32 %val3, i32* @cg_caller_id_var, align 4
	br i1 %tmp215.b, label %bb220, label %bb174

bb220:		; preds = %cond_next212, %bb206
	%tmp223 = load i32* @way.23, align 8		; <i32> [#uses=2]
	%tmp229 = load i32* @way.21, align 8		; <i32> [#uses=1]
	%tmp231 = and i32 %tmp229, %tmp223		; <i32> [#uses=1]
	store i32 %tmp231, i32* %freepointx, align 4
	%tmp247 = ashr i32 %tmp223, %tmp132		; <i32> [#uses=1]
	store i32 %tmp247, i32* %freepointy, align 4
	%tmp254.b = load i1* @way.22.b, align 1		; <i1> [#uses=1]
	%tmp254 = zext i1 %tmp254.b to i8		; <i8> [#uses=1]
	store i32 %val2, i32* @cg_caller_call_site_var, align 4
	store i32 %val, i32* @cg_caller_id_var, align 4
	ret i8 %tmp254
}

declare void @llvm.memcpy.i64(i8*, i8*, i64, i32) nounwind 

define internal fastcc void @_ZN11regboundobj10addtoboundER9flexarrayI6pointtEii(%struct.regboundobj* %this, %struct.boundart* %barp, i32 %x, i32 %y) nounwind  {
entry:
	%val = load i32* @cg_caller_id_var, align 4		; <i32> [#uses=4]
	%val2 = load i32* @cg_caller_call_site_var, align 4		; <i32> [#uses=4]
	store i32 3, i32* @cg_caller_id_var, align 4
	call void @CallEdgeProfiler( i32 %val, i32 %val2, i32 3 )
	%tmp8 = getelementptr %struct.regboundobj* %this, i32 0, i32 15		; <%struct.regmngobj**> [#uses=1]
	%tmp9 = load %struct.regmngobj** %tmp8, align 8		; <%struct.regmngobj*> [#uses=1]
	%tmp18 = getelementptr %struct.regboundobj* %this, i32 0, i32 10		; <i8**> [#uses=1]
	%tmp19 = load i8** %tmp18, align 8		; <i8*> [#uses=1]
	%tmp21 = getelementptr %struct.regboundobj* %this, i32 0, i32 11		; <i32*> [#uses=2]
	%tmp22 = load i32* %tmp21, align 8		; <i32> [#uses=1]
	%tmp24 = mul i32 %tmp22, %y		; <i32> [#uses=1]
	%tmp26 = add i32 %tmp24, %x		; <i32> [#uses=1]
	%tmp2627 = sext i32 %tmp26 to i64		; <i64> [#uses=2]
	%tmp28 = getelementptr i8* %tmp19, i64 %tmp2627		; <i8*> [#uses=1]
	%tmp29 = load i8* %tmp28, align 1		; <i8> [#uses=1]
	%tmp32333436 = zext i8 %tmp29 to i64		; <i64> [#uses=1]
	%tmp37 = getelementptr %struct.regmngobj* %tmp9, i32 0, i32 8, i64 %tmp32333436		; <i8*> [#uses=1]
	%tmp38 = load i8* %tmp37, align 1		; <i8> [#uses=1]
	%toBool = icmp eq i8 %tmp38, 0		; <i1> [#uses=1]
	br i1 %toBool, label %cond_false, label %cond_true

cond_true:		; preds = %entry
	%tmp41 = getelementptr %struct.regboundobj* %this, i32 0, i32 5		; <i32*> [#uses=1]
	%tmp42 = load i32* %tmp41, align 8		; <i32> [#uses=1]
	%tmp44 = sub i32 %x, %tmp42		; <i32> [#uses=2]
	%tmp49 = mul i32 %tmp44, %tmp44		; <i32> [#uses=1]
	%tmp53 = getelementptr %struct.regboundobj* %this, i32 0, i32 6		; <i32*> [#uses=1]
	%tmp54 = load i32* %tmp53, align 8		; <i32> [#uses=1]
	%tmp56 = sub i32 %y, %tmp54		; <i32> [#uses=2]
	%tmp61 = mul i32 %tmp56, %tmp56		; <i32> [#uses=1]
	%tmp66 = add i32 %tmp61, %tmp49		; <i32> [#uses=1]
	%tmp6667 = sitofp i32 %tmp66 to float		; <float> [#uses=1]
	%tmp71 = add float %tmp6667, 5.000000e-01		; <float> [#uses=1]
	%tmp7172 = fptosi float %tmp71 to i32		; <i32> [#uses=1]
	%tmp76 = getelementptr %struct.regboundobj* %this, i32 0, i32 8		; <i32*> [#uses=1]
	%tmp77 = load i32* %tmp76, align 8		; <i32> [#uses=1]
	%tmp79 = icmp sgt i32 %tmp7172, %tmp77		; <i1> [#uses=1]
	br i1 %tmp79, label %UnifiedReturnBlock, label %cond_true83

cond_true83:		; preds = %cond_true
	%tmp94 = getelementptr %struct.boundart* %barp, i32 0, i32 1		; <i32*> [#uses=4]
	%tmp95 = load i32* %tmp94, align 8		; <i32> [#uses=1]
	%tmp97 = getelementptr %struct.boundart* %barp, i32 0, i32 2		; <i32*> [#uses=2]
	%tmp98 = load i32* %tmp97, align 8		; <i32> [#uses=3]
	%tmp99 = icmp eq i32 %tmp95, %tmp98		; <i1> [#uses=1]
	br i1 %tmp99, label %cond_true102, label %cond_next147

cond_true102:		; preds = %cond_true83
	%tmp109 = shl i32 %tmp98, 1		; <i32> [#uses=2]
	%tmp117 = malloc %struct.pointt, i32 %tmp109		; <%struct.pointt*> [#uses=2]
	%tmpcast = bitcast %struct.pointt* %tmp117 to i8*		; <i8*> [#uses=1]
	%tmp127128 = sext i32 %tmp98 to i64		; <i64> [#uses=1]
	%tmp129 = shl i64 %tmp127128, 3		; <i64> [#uses=1]
	%tmp131 = getelementptr %struct.boundart* %barp, i32 0, i32 0		; <%struct.pointt**> [#uses=3]
	%tmp132 = load %struct.pointt** %tmp131, align 8		; <%struct.pointt*> [#uses=1]
	%tmp132135 = bitcast %struct.pointt* %tmp132 to i8*		; <i8*> [#uses=1]
	store i32 0, i32* @cg_caller_call_site_var, align 4
	store i32 3, i32* @cg_caller_id_var, align 4
	tail call void @llvm.memcpy.i64( i8* %tmpcast, i8* %tmp132135, i64 %tmp129, i32 4 )
	%tmp138 = load %struct.pointt** %tmp131, align 8		; <%struct.pointt*> [#uses=1]
	free %struct.pointt* %tmp138
	store %struct.pointt* %tmp117, %struct.pointt** %tmp131, align 8
	store i32 %tmp109, i32* %tmp97, align 8
	br label %cond_next147

cond_next147:		; preds = %cond_true102, %cond_true83
	%tmp149 = getelementptr %struct.boundart* %barp, i32 0, i32 0		; <%struct.pointt**> [#uses=1]
	%tmp150 = load %struct.pointt** %tmp149, align 8		; <%struct.pointt*> [#uses=2]
	%tmp153 = load i32* %tmp94, align 8		; <i32> [#uses=1]
	%tmp153161 = sext i32 %tmp153 to i64		; <i64> [#uses=2]
	%tmp163 = getelementptr %struct.pointt* %tmp150, i64 %tmp153161, i32 0		; <i32*> [#uses=1]
	store i32 %x, i32* %tmp163, align 4
	%tmp166 = getelementptr %struct.pointt* %tmp150, i64 %tmp153161, i32 1		; <i32*> [#uses=1]
	store i32 %y, i32* %tmp166, align 4
	%tmp171 = load i32* %tmp94, align 8		; <i32> [#uses=1]
	%tmp172 = add i32 %tmp171, 1		; <i32> [#uses=1]
	store i32 %tmp172, i32* %tmp94, align 8
	%tmp176 = getelementptr %struct.regboundobj* %this, i32 0, i32 4		; <%struct.regobj**> [#uses=2]
	%tmp177 = load %struct.regobj** %tmp176, align 8		; <%struct.regobj*> [#uses=1]
	%tmp186 = getelementptr %struct.regboundobj* %this, i32 0, i32 9		; <%struct.regobj***> [#uses=1]
	%tmp187 = load %struct.regobj*** %tmp186, align 8		; <%struct.regobj**> [#uses=1]
	%tmp190 = load i32* %tmp21, align 8		; <i32> [#uses=1]
	%tmp192 = mul i32 %tmp190, %y		; <i32> [#uses=1]
	%tmp194 = add i32 %tmp192, %x		; <i32> [#uses=1]
	%tmp194195 = sext i32 %tmp194 to i64		; <i64> [#uses=1]
	%tmp196 = getelementptr %struct.regobj** %tmp187, i64 %tmp194195		; <%struct.regobj**> [#uses=1]
	store %struct.regobj* %tmp177, %struct.regobj** %tmp196, align 8
	%tmp202 = load %struct.regobj** %tmp176, align 8		; <%struct.regobj*> [#uses=1]
	%tmp203 = getelementptr %struct.regobj* %tmp202, i32 0, i32 4		; <i32*> [#uses=2]
	%tmp204 = load i32* %tmp203, align 8		; <i32> [#uses=1]
	%tmp205 = add i32 %tmp204, 1		; <i32> [#uses=1]
	store i32 %tmp205, i32* %tmp203, align 8
	store i32 %val2, i32* @cg_caller_call_site_var, align 4
	store i32 %val, i32* @cg_caller_id_var, align 4
	ret void

cond_false:		; preds = %entry
	%tmp216 = getelementptr %struct.regboundobj* %this, i32 0, i32 9		; <%struct.regobj***> [#uses=1]
	%tmp217 = load %struct.regobj*** %tmp216, align 8		; <%struct.regobj**> [#uses=1]
	%tmp226 = getelementptr %struct.regobj** %tmp217, i64 %tmp2627		; <%struct.regobj**> [#uses=1]
	store %struct.regobj* null, %struct.regobj** %tmp226, align 8
	store i32 %val2, i32* @cg_caller_call_site_var, align 4
	store i32 %val, i32* @cg_caller_id_var, align 4
	ret void

UnifiedReturnBlock:		; preds = %cond_true
	store i32 %val2, i32* @cg_caller_call_site_var, align 4
	store i32 %val, i32* @cg_caller_id_var, align 4
	ret void
}

define internal fastcc void @_ZN11regboundobj10makebound2ER9flexarrayI6pointtES3_(%struct.regboundobj* %this, %struct.boundart* %b1arp, %struct.boundart* %b2arp) nounwind  {
entry:
	%val = load i32* @cg_caller_id_var, align 4		; <i32> [#uses=2]
	%val2 = load i32* @cg_caller_call_site_var, align 4		; <i32> [#uses=2]
	store i32 4, i32* @cg_caller_id_var, align 4
	call void @CallEdgeProfiler( i32 %val, i32 %val2, i32 4 )
	%tmp8 = getelementptr %struct.boundart* %b2arp, i32 0, i32 1		; <i32*> [#uses=1]
	store i32 0, i32* %tmp8, align 8
	%tmp168180 = getelementptr %struct.boundart* %b1arp, i32 0, i32 1		; <i32*> [#uses=2]
	%tmp169181 = load i32* %tmp168180, align 8		; <i32> [#uses=1]
	%tmp171183 = icmp sgt i32 %tmp169181, 0		; <i1> [#uses=1]
	br i1 %tmp171183, label %bb.preheader, label %return

bb.preheader:		; preds = %entry
	%tmp14 = getelementptr %struct.boundart* %b1arp, i32 0, i32 0		; <%struct.pointt**> [#uses=1]
	%tmp86 = getelementptr %struct.regboundobj* %this, i32 0, i32 13		; <i32*> [#uses=1]
	%tmp98 = getelementptr %struct.regboundobj* %this, i32 0, i32 14		; <i32*> [#uses=1]
	%tmp121 = getelementptr %struct.regboundobj* %this, i32 0, i32 9		; <%struct.regobj***> [#uses=1]
	%tmp124 = getelementptr %struct.regboundobj* %this, i32 0, i32 11		; <i32*> [#uses=1]
	br label %bb

bb:		; preds = %bb166, %bb.preheader
	%j.0.reg2mem.0 = phi i32 [ 0, %bb.preheader ], [ %tmp165, %bb166 ]		; <i32> [#uses=2]
	%val3 = load i32* @cg_caller_id_var, align 4		; <i32> [#uses=2]
	%val4 = load i32* @cg_caller_call_site_var, align 4		; <i32> [#uses=2]
	store i32 34, i32* @cg_caller_id_var, align 4
	call void @CallEdgeProfiler( i32 %val3, i32 %val4, i32 34 )
	%tmp15 = load %struct.pointt** %tmp14, align 8		; <%struct.pointt*> [#uses=2]
	%tmp1617 = sext i32 %j.0.reg2mem.0 to i64		; <i64> [#uses=2]
	%tmp22 = getelementptr %struct.pointt* %tmp15, i64 %tmp1617, i32 0		; <i32*> [#uses=1]
	%tmp23 = load i32* %tmp22, align 4		; <i32> [#uses=2]
	%tmp24 = add i32 %tmp23, -1		; <i32> [#uses=2]
	%tmp39 = getelementptr %struct.pointt* %tmp15, i64 %tmp1617, i32 1		; <i32*> [#uses=1]
	%tmp40 = load i32* %tmp39, align 4		; <i32> [#uses=2]
	%tmp41 = add i32 %tmp40, -1		; <i32> [#uses=2]
	%tmp58 = add i32 %tmp23, 1		; <i32> [#uses=2]
	%tmp75 = add i32 %tmp40, 1		; <i32> [#uses=2]
	%tmp77 = icmp slt i32 %tmp24, 0		; <i1> [#uses=1]
	%x1.0 = select i1 %tmp77, i32 0, i32 %tmp24		; <i32> [#uses=2]
	%tmp80 = icmp slt i32 %tmp41, 0		; <i1> [#uses=1]
	%y1.0 = select i1 %tmp80, i32 0, i32 %tmp41		; <i32> [#uses=3]
	%tmp87 = load i32* %tmp86, align 8		; <i32> [#uses=2]
	%tmp89 = icmp slt i32 %tmp87, %tmp58		; <i1> [#uses=1]
	%x2.0 = select i1 %tmp89, i32 %tmp87, i32 %tmp58		; <i32> [#uses=2]
	%tmp99 = load i32* %tmp98, align 8		; <i32> [#uses=3]
	%tmp101 = icmp slt i32 %tmp99, %tmp75		; <i1> [#uses=1]
	br i1 %tmp101, label %cond_true104, label %bb157

cond_true104:		; preds = %bb
	%tmp160190 = icmp sgt i32 %y1.0, %tmp99		; <i1> [#uses=1]
	br i1 %tmp160190, label %bb166, label %bb148.preheader

bb148.preheader:		; preds = %bb157, %cond_true104
	%y2.0.reg2mem.0.ph = phi i32 [ %tmp99, %cond_true104 ], [ %y2.0, %bb157 ]		; <i32> [#uses=1]
	%y.0.reg2mem.0.ph = phi i32 [ %y1.0, %cond_true104 ], [ %y.0, %bb157 ]		; <i32> [#uses=3]
	%tmp151192 = icmp sgt i32 %x1.0, %x2.0		; <i1> [#uses=1]
	br i1 %tmp151192, label %bb154, label %bb112

bb112:		; preds = %cond_next145, %bb148.preheader
	%indvar = phi i32 [ %indvar.next, %cond_next145 ], [ 0, %bb148.preheader ]		; <i32> [#uses=2]
	%val31 = load i32* @cg_caller_id_var, align 4		; <i32> [#uses=2]
	%val42 = load i32* @cg_caller_call_site_var, align 4		; <i32> [#uses=2]
	store i32 35, i32* @cg_caller_id_var, align 4
	call void @CallEdgeProfiler( i32 %val31, i32 %val42, i32 35 )
	%x.0191 = add i32 %indvar, %x1.0		; <i32> [#uses=3]
	%tmp122 = load %struct.regobj*** %tmp121, align 8		; <%struct.regobj**> [#uses=1]
	%tmp125 = load i32* %tmp124, align 8		; <i32> [#uses=1]
	%tmp127 = mul i32 %tmp125, %y.0.reg2mem.0.ph		; <i32> [#uses=1]
	%tmp129 = add i32 %tmp127, %x.0191		; <i32> [#uses=1]
	%tmp129130 = sext i32 %tmp129 to i64		; <i64> [#uses=1]
	%tmp131 = getelementptr %struct.regobj** %tmp122, i64 %tmp129130		; <%struct.regobj**> [#uses=1]
	%tmp135 = load %struct.regobj** %tmp131, align 8		; <%struct.regobj*> [#uses=1]
	%tmp136 = icmp eq %struct.regobj* %tmp135, null		; <i1> [#uses=1]
	br i1 %tmp136, label %cond_true140, label %cond_next145

cond_true140:		; preds = %bb112
	store i32 0, i32* @cg_caller_call_site_var, align 4
	store i32 4, i32* @cg_caller_id_var, align 4
	store i32 0, i32* @cg_caller_call_site_var, align 4
	store i32 34, i32* @cg_caller_id_var, align 4
	store i32 0, i32* @cg_caller_call_site_var, align 4
	store i32 35, i32* @cg_caller_id_var, align 4
	tail call fastcc void @_ZN11regboundobj10addtoboundER9flexarrayI6pointtEii( %struct.regboundobj* %this, %struct.boundart* %b2arp, i32 %x.0191, i32 %y.0.reg2mem.0.ph )
	br label %cond_next145

cond_next145:		; preds = %cond_true140, %bb112
	%tmp147 = add i32 %x.0191, 1		; <i32> [#uses=1]
	%tmp151 = icmp sgt i32 %tmp147, %x2.0		; <i1> [#uses=1]
	%indvar.next = add i32 %indvar, 1		; <i32> [#uses=1]
	store i32 %val42, i32* @cg_caller_call_site_var, align 4
	store i32 %val31, i32* @cg_caller_id_var, align 4
	br i1 %tmp151, label %bb154, label %bb112

bb154:		; preds = %cond_next145, %bb148.preheader
	%tmp156 = add i32 %y.0.reg2mem.0.ph, 1		; <i32> [#uses=1]
	br label %bb157

bb157:		; preds = %bb154, %bb
	%y2.0 = phi i32 [ %y2.0.reg2mem.0.ph, %bb154 ], [ %tmp75, %bb ]		; <i32> [#uses=2]
	%y.0 = phi i32 [ %tmp156, %bb154 ], [ %y1.0, %bb ]		; <i32> [#uses=2]
	%tmp160 = icmp sgt i32 %y.0, %y2.0		; <i1> [#uses=1]
	br i1 %tmp160, label %bb166, label %bb148.preheader

bb166:		; preds = %bb157, %cond_true104
	%tmp165 = add i32 %j.0.reg2mem.0, 1		; <i32> [#uses=2]
	%tmp169 = load i32* %tmp168180, align 8		; <i32> [#uses=1]
	%tmp171 = icmp sgt i32 %tmp169, %tmp165		; <i1> [#uses=1]
	store i32 %val4, i32* @cg_caller_call_site_var, align 4
	store i32 %val3, i32* @cg_caller_id_var, align 4
	br i1 %tmp171, label %bb, label %return

return:		; preds = %bb166, %entry
	store i32 %val2, i32* @cg_caller_call_site_var, align 4
	store i32 %val, i32* @cg_caller_id_var, align 4
	ret void
}

define internal fastcc i8 @_ZN11regboundobj4stepEv(%struct.regboundobj* %this) zeroext nounwind  {
entry:
	%val = load i32* @cg_caller_id_var, align 4		; <i32> [#uses=4]
	%val2 = load i32* @cg_caller_call_site_var, align 4		; <i32> [#uses=4]
	store i32 5, i32* @cg_caller_id_var, align 4
	call void @CallEdgeProfiler( i32 %val, i32 %val2, i32 5 )
	%tmp2 = getelementptr %struct.regboundobj* %this, i32 0, i32 3		; <i32*> [#uses=3]
	%tmp3 = load i32* %tmp2, align 8		; <i32> [#uses=1]
	%tmp4 = icmp eq i32 %tmp3, 0		; <i1> [#uses=1]
	br i1 %tmp4, label %UnifiedReturnBlock, label %cond_next

cond_next:		; preds = %entry
	%tmp7 = getelementptr %struct.regboundobj* %this, i32 0, i32 16		; <i8*> [#uses=1]
	%tmp8 = load i8* %tmp7, align 8		; <i8> [#uses=1]
	%tmp10 = icmp eq i8 %tmp8, 0		; <i1> [#uses=1]
	br i1 %tmp10, label %UnifiedReturnBlock, label %bb14

bb14:		; preds = %cond_next
	%tmp16 = getelementptr %struct.regboundobj* %this, i32 0, i32 2		; <i8*> [#uses=3]
	%tmp17 = load i8* %tmp16, align 8		; <i8> [#uses=1]
	%tmp19 = icmp eq i8 %tmp17, 0		; <i1> [#uses=1]
	br i1 %tmp19, label %cond_true22, label %cond_false

cond_true22:		; preds = %bb14
	%tmp24 = getelementptr %struct.regboundobj* %this, i32 0, i32 1		; <%struct.boundart*> [#uses=1]
	%tmp26 = getelementptr %struct.regboundobj* %this, i32 0, i32 0		; <%struct.boundart*> [#uses=1]
	store i32 0, i32* @cg_caller_call_site_var, align 4
	store i32 5, i32* @cg_caller_id_var, align 4
	tail call fastcc void @_ZN11regboundobj10makebound2ER9flexarrayI6pointtES3_( %struct.regboundobj* %this, %struct.boundart* %tmp26, %struct.boundart* %tmp24 )
	%tmp30 = getelementptr %struct.regboundobj* %this, i32 0, i32 1, i32 1		; <i32*> [#uses=1]
	%tmp31 = load i32* %tmp30, align 8		; <i32> [#uses=2]
	store i32 %tmp31, i32* %tmp2, align 8
	store i8 1, i8* %tmp16, align 8
	%not.tmp5465 = icmp ne i32 %tmp31, 0		; <i1> [#uses=1]
	%retval66 = zext i1 %not.tmp5465 to i8		; <i8> [#uses=1]
	store i32 %val2, i32* @cg_caller_call_site_var, align 4
	store i32 %val, i32* @cg_caller_id_var, align 4
	ret i8 %retval66

cond_false:		; preds = %bb14
	%tmp37 = getelementptr %struct.regboundobj* %this, i32 0, i32 0		; <%struct.boundart*> [#uses=1]
	%tmp39 = getelementptr %struct.regboundobj* %this, i32 0, i32 1		; <%struct.boundart*> [#uses=1]
	store i32 1, i32* @cg_caller_call_site_var, align 4
	store i32 5, i32* @cg_caller_id_var, align 4
	tail call fastcc void @_ZN11regboundobj10makebound2ER9flexarrayI6pointtES3_( %struct.regboundobj* %this, %struct.boundart* %tmp39, %struct.boundart* %tmp37 )
	%tmp43 = getelementptr %struct.regboundobj* %this, i32 0, i32 0, i32 1		; <i32*> [#uses=1]
	%tmp44 = load i32* %tmp43, align 8		; <i32> [#uses=2]
	store i32 %tmp44, i32* %tmp2, align 8
	store i8 0, i8* %tmp16, align 8
	%not.tmp54 = icmp ne i32 %tmp44, 0		; <i1> [#uses=1]
	%retval = zext i1 %not.tmp54 to i8		; <i8> [#uses=1]
	store i32 %val2, i32* @cg_caller_call_site_var, align 4
	store i32 %val, i32* @cg_caller_id_var, align 4
	ret i8 %retval

UnifiedReturnBlock:		; preds = %cond_next, %entry
	store i32 %val2, i32* @cg_caller_call_site_var, align 4
	store i32 %val, i32* @cg_caller_id_var, align 4
	ret i8 0
}

define internal fastcc void @_ZN11regboundobj9firststepEiiP6regobjP9regmngobj(%struct.regboundobj* %this, i32 %x0, i32 %y0, %struct.regobj* %regionpin) nounwind  {
entry:
	%val = load i32* @cg_caller_id_var, align 4		; <i32> [#uses=3]
	%val2 = load i32* @cg_caller_call_site_var, align 4		; <i32> [#uses=3]
	store i32 6, i32* @cg_caller_id_var, align 4
	call void @CallEdgeProfiler( i32 %val, i32 %val2, i32 6 )
	%tmp2 = getelementptr %struct.regboundobj* %this, i32 0, i32 5		; <i32*> [#uses=1]
	store i32 %x0, i32* %tmp2, align 8
	%tmp5 = getelementptr %struct.regboundobj* %this, i32 0, i32 6		; <i32*> [#uses=1]
	store i32 %y0, i32* %tmp5, align 8
	%tmp8 = getelementptr %struct.regboundobj* %this, i32 0, i32 4		; <%struct.regobj**> [#uses=1]
	store %struct.regobj* %regionpin, %struct.regobj** %tmp8, align 8
	%tmp11 = getelementptr %struct.regboundobj* %this, i32 0, i32 15		; <%struct.regmngobj**> [#uses=2]
	store %struct.regmngobj* @regmng, %struct.regmngobj** %tmp11, align 8
	%tmp17 = load %struct.regobj*** getelementptr (%struct.regmngobj* @regmng, i32 0, i32 6), align 8		; <%struct.regobj**> [#uses=1]
	%tmp19 = getelementptr %struct.regboundobj* %this, i32 0, i32 9		; <%struct.regobj***> [#uses=2]
	store %struct.regobj** %tmp17, %struct.regobj*** %tmp19, align 8
	%tmp24 = load i8** getelementptr (%struct.regmngobj* @regmng, i32 0, i32 7), align 8		; <i8*> [#uses=1]
	%tmp26 = getelementptr %struct.regboundobj* %this, i32 0, i32 10		; <i8**> [#uses=1]
	store i8* %tmp24, i8** %tmp26, align 8
	%tmp31 = load i32* getelementptr (%struct.regmngobj* @regmng, i32 0, i32 16), align 8		; <i32> [#uses=1]
	%tmp33 = getelementptr %struct.regboundobj* %this, i32 0, i32 11		; <i32*> [#uses=2]
	store i32 %tmp31, i32* %tmp33, align 8
	%tmp38 = load i32* getelementptr (%struct.regmngobj* @regmng, i32 0, i32 17), align 8		; <i32> [#uses=1]
	%tmp40 = getelementptr %struct.regboundobj* %this, i32 0, i32 12		; <i32*> [#uses=1]
	store i32 %tmp38, i32* %tmp40, align 8
	%tmp45 = load i32* getelementptr (%struct.regmngobj* @regmng, i32 0, i32 12), align 8		; <i32> [#uses=1]
	%tmp47 = getelementptr %struct.regboundobj* %this, i32 0, i32 13		; <i32*> [#uses=2]
	store i32 %tmp45, i32* %tmp47, align 8
	%tmp52 = load i32* getelementptr (%struct.regmngobj* @regmng, i32 0, i32 13), align 8		; <i32> [#uses=1]
	%tmp54 = getelementptr %struct.regboundobj* %this, i32 0, i32 14		; <i32*> [#uses=2]
	store i32 %tmp52, i32* %tmp54, align 8
	%tmp57 = load %struct.regmngobj** %tmp11, align 8		; <%struct.regmngobj*> [#uses=1]
	%tmp58 = getelementptr %struct.regmngobj* %tmp57, i32 0, i32 9		; <i32*> [#uses=1]
	%tmp59 = load i32* %tmp58, align 8		; <i32> [#uses=3]
	%tmp61 = getelementptr %struct.regboundobj* %this, i32 0, i32 7		; <i32*> [#uses=1]
	store i32 %tmp59, i32* %tmp61, align 8
	%tmp68 = mul i32 %tmp59, %tmp59		; <i32> [#uses=1]
	%tmp70 = getelementptr %struct.regboundobj* %this, i32 0, i32 8		; <i32*> [#uses=1]
	store i32 %tmp68, i32* %tmp70, align 8
	%tmp72 = getelementptr %struct.regboundobj* %this, i32 0, i32 16		; <i8*> [#uses=1]
	%tmp73 = load i8* %tmp72, align 8		; <i8> [#uses=1]
	%tmp75 = icmp eq i8 %tmp73, 0		; <i1> [#uses=1]
	br i1 %tmp75, label %cond_true, label %cond_next

cond_true:		; preds = %entry
	%tmp78 = getelementptr %struct.regboundobj* %this, i32 0, i32 3		; <i32*> [#uses=1]
	store i32 0, i32* %tmp78, align 8
	store i32 %val2, i32* @cg_caller_call_site_var, align 4
	store i32 %val, i32* @cg_caller_id_var, align 4
	ret void

cond_next:		; preds = %entry
	%tmp82 = getelementptr %struct.regobj* %regionpin, i32 0, i32 4		; <i32*> [#uses=1]
	store i32 0, i32* %tmp82, align 8
	%tmp88 = getelementptr %struct.regboundobj* %this, i32 0, i32 0, i32 2		; <i32*> [#uses=1]
	store i32 128, i32* %tmp88, align 8
	%tmp91 = getelementptr %struct.regboundobj* %this, i32 0, i32 0, i32 1		; <i32*> [#uses=2]
	store i32 0, i32* %tmp91, align 8
	%tmp101258 = malloc [128 x %struct.pointt]		; <[128 x %struct.pointt]*> [#uses=1]
	%tmp101258.sub = getelementptr [128 x %struct.pointt]* %tmp101258, i32 0, i32 0		; <%struct.pointt*> [#uses=1]
	%tmp106 = getelementptr %struct.regboundobj* %this, i32 0, i32 0, i32 0		; <%struct.pointt**> [#uses=1]
	store %struct.pointt* %tmp101258.sub, %struct.pointt** %tmp106, align 8
	%tmp113 = getelementptr %struct.regboundobj* %this, i32 0, i32 1, i32 2		; <i32*> [#uses=1]
	store i32 128, i32* %tmp113, align 8
	%tmp116 = getelementptr %struct.regboundobj* %this, i32 0, i32 1, i32 1		; <i32*> [#uses=1]
	store i32 0, i32* %tmp116, align 8
	%tmp128257 = malloc [128 x %struct.pointt]		; <[128 x %struct.pointt]*> [#uses=1]
	%tmp128257.sub = getelementptr [128 x %struct.pointt]* %tmp128257, i32 0, i32 0		; <%struct.pointt*> [#uses=1]
	%tmp134 = getelementptr %struct.regboundobj* %this, i32 0, i32 1, i32 0		; <%struct.pointt**> [#uses=1]
	store %struct.pointt* %tmp128257.sub, %struct.pointt** %tmp134, align 8
	%tmp136 = add i32 %x0, -1		; <i32> [#uses=2]
	%tmp138 = add i32 %y0, -1		; <i32> [#uses=2]
	%tmp140 = add i32 %x0, 1		; <i32> [#uses=2]
	%tmp142 = add i32 %y0, 1		; <i32> [#uses=2]
	%tmp144 = icmp slt i32 %tmp136, 0		; <i1> [#uses=1]
	%x1.0 = select i1 %tmp144, i32 0, i32 %tmp136		; <i32> [#uses=2]
	%tmp150 = icmp slt i32 %tmp138, 0		; <i1> [#uses=1]
	%y1.0 = select i1 %tmp150, i32 0, i32 %tmp138		; <i32> [#uses=3]
	%tmp157 = load i32* %tmp47, align 8		; <i32> [#uses=2]
	%tmp159 = icmp slt i32 %tmp157, %tmp140		; <i1> [#uses=1]
	%x2.0 = select i1 %tmp159, i32 %tmp157, i32 %tmp140		; <i32> [#uses=2]
	%tmp169 = load i32* %tmp54, align 8		; <i32> [#uses=3]
	%tmp171 = icmp slt i32 %tmp169, %tmp142		; <i1> [#uses=1]
	br i1 %tmp171, label %cond_true174, label %bb228

cond_true174:		; preds = %cond_next
	%tmp231252 = icmp sgt i32 %y1.0, %tmp169		; <i1> [#uses=1]
	br i1 %tmp231252, label %bb234, label %bb219.preheader

bb219.preheader:		; preds = %bb228, %cond_true174
	%y2.0.reg2mem.0.ph = phi i32 [ %tmp169, %cond_true174 ], [ %y2.0, %bb228 ]		; <i32> [#uses=1]
	%y.0.reg2mem.0.ph = phi i32 [ %y1.0, %cond_true174 ], [ %y.0, %bb228 ]		; <i32> [#uses=3]
	%tmp222254 = icmp sgt i32 %x1.0, %x2.0		; <i1> [#uses=1]
	br i1 %tmp222254, label %bb225, label %bb.nph

bb.nph:		; preds = %bb219.preheader
	%tmp212 = getelementptr %struct.regboundobj* %this, i32 0, i32 0		; <%struct.boundart*> [#uses=1]
	br label %bb182

bb182:		; preds = %cond_next216, %bb.nph
	%indvar = phi i32 [ 0, %bb.nph ], [ %indvar.next, %cond_next216 ]		; <i32> [#uses=2]
	%val3 = load i32* @cg_caller_id_var, align 4		; <i32> [#uses=2]
	%val4 = load i32* @cg_caller_call_site_var, align 4		; <i32> [#uses=2]
	store i32 36, i32* @cg_caller_id_var, align 4
	call void @CallEdgeProfiler( i32 %val3, i32 %val4, i32 36 )
	%x.0253 = add i32 %indvar, %x1.0		; <i32> [#uses=3]
	%tmp192 = load %struct.regobj*** %tmp19, align 8		; <%struct.regobj**> [#uses=1]
	%tmp195 = load i32* %tmp33, align 8		; <i32> [#uses=1]
	%tmp197 = mul i32 %tmp195, %y.0.reg2mem.0.ph		; <i32> [#uses=1]
	%tmp199 = add i32 %tmp197, %x.0253		; <i32> [#uses=1]
	%tmp199200 = sext i32 %tmp199 to i64		; <i64> [#uses=1]
	%tmp201 = getelementptr %struct.regobj** %tmp192, i64 %tmp199200		; <%struct.regobj**> [#uses=1]
	%tmp205 = load %struct.regobj** %tmp201, align 8		; <%struct.regobj*> [#uses=1]
	%tmp206 = icmp eq %struct.regobj* %tmp205, null		; <i1> [#uses=1]
	br i1 %tmp206, label %cond_true210, label %cond_next216

cond_true210:		; preds = %bb182
	store i32 0, i32* @cg_caller_call_site_var, align 4
	store i32 6, i32* @cg_caller_id_var, align 4
	store i32 0, i32* @cg_caller_call_site_var, align 4
	store i32 36, i32* @cg_caller_id_var, align 4
	tail call fastcc void @_ZN11regboundobj10addtoboundER9flexarrayI6pointtEii( %struct.regboundobj* %this, %struct.boundart* %tmp212, i32 %x.0253, i32 %y.0.reg2mem.0.ph )
	br label %cond_next216

cond_next216:		; preds = %cond_true210, %bb182
	%tmp218 = add i32 %x.0253, 1		; <i32> [#uses=1]
	%tmp222 = icmp sgt i32 %tmp218, %x2.0		; <i1> [#uses=1]
	%indvar.next = add i32 %indvar, 1		; <i32> [#uses=1]
	store i32 %val4, i32* @cg_caller_call_site_var, align 4
	store i32 %val3, i32* @cg_caller_id_var, align 4
	br i1 %tmp222, label %bb225, label %bb182

bb225:		; preds = %cond_next216, %bb219.preheader
	%tmp227 = add i32 %y.0.reg2mem.0.ph, 1		; <i32> [#uses=1]
	br label %bb228

bb228:		; preds = %bb225, %cond_next
	%y2.0 = phi i32 [ %y2.0.reg2mem.0.ph, %bb225 ], [ %tmp142, %cond_next ]		; <i32> [#uses=2]
	%y.0 = phi i32 [ %tmp227, %bb225 ], [ %y1.0, %cond_next ]		; <i32> [#uses=2]
	%tmp231 = icmp sgt i32 %y.0, %y2.0		; <i1> [#uses=1]
	br i1 %tmp231, label %bb234, label %bb219.preheader

bb234:		; preds = %bb228, %cond_true174
	%tmp236 = getelementptr %struct.regboundobj* %this, i32 0, i32 2		; <i8*> [#uses=1]
	store i8 0, i8* %tmp236, align 8
	%tmp240 = load i32* %tmp91, align 8		; <i32> [#uses=1]
	%tmp242 = getelementptr %struct.regboundobj* %this, i32 0, i32 3		; <i32*> [#uses=1]
	store i32 %tmp240, i32* %tmp242, align 8
	store i32 %val2, i32* @cg_caller_call_site_var, align 4
	store i32 %val, i32* @cg_caller_id_var, align 4
	ret void
}

define internal fastcc void @_ZN9regmngobj10makebound2ER9flexarrayI6pointtES3_(%struct.boundart* %b1arp, %struct.boundart* %b2arp) nounwind  {
entry:
	%val = load i32* @cg_caller_id_var, align 4		; <i32> [#uses=2]
	%val2 = load i32* @cg_caller_call_site_var, align 4		; <i32> [#uses=2]
	store i32 7, i32* @cg_caller_id_var, align 4
	call void @CallEdgeProfiler( i32 %val, i32 %val2, i32 7 )
	%tmp8 = getelementptr %struct.boundart* %b2arp, i32 0, i32 1		; <i32*> [#uses=5]
	store i32 0, i32* %tmp8, align 8
	%tmp330343 = getelementptr %struct.boundart* %b1arp, i32 0, i32 1		; <i32*> [#uses=2]
	%tmp331344 = load i32* %tmp330343, align 8		; <i32> [#uses=1]
	%tmp333346 = icmp sgt i32 %tmp331344, 0		; <i1> [#uses=1]
	br i1 %tmp333346, label %bb.preheader, label %return

bb.preheader:		; preds = %entry
	%tmp14 = getelementptr %struct.boundart* %b1arp, i32 0, i32 0		; <%struct.pointt**> [#uses=1]
	%tmp211 = getelementptr %struct.boundart* %b2arp, i32 0, i32 2		; <i32*> [#uses=2]
	%tmp245 = getelementptr %struct.boundart* %b2arp, i32 0, i32 0		; <%struct.pointt**> [#uses=4]
	br label %bb

bb:		; preds = %bb328, %bb.preheader
	%j.0.reg2mem.0 = phi i32 [ 0, %bb.preheader ], [ %tmp327, %bb328 ]		; <i32> [#uses=2]
	%val3 = load i32* @cg_caller_id_var, align 4		; <i32> [#uses=2]
	%val4 = load i32* @cg_caller_call_site_var, align 4		; <i32> [#uses=2]
	store i32 37, i32* @cg_caller_id_var, align 4
	call void @CallEdgeProfiler( i32 %val3, i32 %val4, i32 37 )
	%tmp15 = load %struct.pointt** %tmp14, align 8		; <%struct.pointt*> [#uses=2]
	%tmp1617 = sext i32 %j.0.reg2mem.0 to i64		; <i64> [#uses=2]
	%tmp22 = getelementptr %struct.pointt* %tmp15, i64 %tmp1617, i32 0		; <i32*> [#uses=1]
	%tmp23 = load i32* %tmp22, align 4		; <i32> [#uses=2]
	%tmp24 = add i32 %tmp23, -1		; <i32> [#uses=2]
	%tmp39 = getelementptr %struct.pointt* %tmp15, i64 %tmp1617, i32 1		; <i32*> [#uses=1]
	%tmp40 = load i32* %tmp39, align 4		; <i32> [#uses=2]
	%tmp41 = add i32 %tmp40, -1		; <i32> [#uses=2]
	%tmp58 = add i32 %tmp23, 1		; <i32> [#uses=2]
	%tmp75 = add i32 %tmp40, 1		; <i32> [#uses=2]
	%tmp77 = icmp slt i32 %tmp24, 0		; <i1> [#uses=1]
	%x1.0 = select i1 %tmp77, i32 0, i32 %tmp24		; <i32> [#uses=1]
	%tmp80 = icmp slt i32 %tmp41, 0		; <i1> [#uses=1]
	%y1.0 = select i1 %tmp80, i32 0, i32 %tmp41		; <i32> [#uses=3]
	%tmp87 = load i32* getelementptr (%struct.regmngobj* @regmng, i32 0, i32 12), align 8		; <i32> [#uses=2]
	%tmp89 = icmp slt i32 %tmp87, %tmp58		; <i1> [#uses=1]
	%x2.0 = select i1 %tmp89, i32 %tmp87, i32 %tmp58		; <i32> [#uses=2]
	%tmp99 = load i32* getelementptr (%struct.regmngobj* @regmng, i32 0, i32 13), align 8		; <i32> [#uses=3]
	%tmp101 = icmp slt i32 %tmp99, %tmp75		; <i1> [#uses=1]
	br i1 %tmp101, label %cond_true104, label %bb319

cond_true104:		; preds = %bb
	%tmp322356 = icmp sgt i32 %y1.0, %tmp99		; <i1> [#uses=1]
	br i1 %tmp322356, label %bb328, label %bb310.preheader

bb310.preheader:		; preds = %bb319, %cond_true104
	%y2.0.reg2mem.0.ph = phi i32 [ %tmp99, %cond_true104 ], [ %y2.0, %bb319 ]		; <i32> [#uses=1]
	%y.0.reg2mem.0.ph = phi i32 [ %y1.0, %cond_true104 ], [ %y.0, %bb319 ]		; <i32> [#uses=5]
	br label %bb310

bb112:		; preds = %bb310, %cond_true182
	%indvar = phi i32 [ %indvar.next, %cond_true182 ], [ 0, %bb310 ]		; <i32> [#uses=2]
	%val33 = load i32* @cg_caller_id_var, align 4		; <i32> [#uses=5]
	%val44 = load i32* @cg_caller_call_site_var, align 4		; <i32> [#uses=5]
	store i32 39, i32* @cg_caller_id_var, align 4
	call void @CallEdgeProfiler( i32 %val33, i32 %val44, i32 39 )
	%x.0.reg2mem.0 = add i32 %indvar, %x.0		; <i32> [#uses=6]
	%tmp115 = load i16** getelementptr (%struct.regmngobj* @regmng, i32 0, i32 0), align 32		; <i16*> [#uses=1]
	%tmp118 = load i32* getelementptr (%struct.regmngobj* @regmng, i32 0, i32 16), align 8		; <i32> [#uses=1]
	%tmp120 = mul i32 %tmp118, %y.0.reg2mem.0.ph		; <i32> [#uses=1]
	%tmp122 = add i32 %tmp120, %x.0.reg2mem.0		; <i32> [#uses=1]
	%tmp122123 = sext i32 %tmp122 to i64		; <i64> [#uses=2]
	%tmp124 = getelementptr i16* %tmp115, i64 %tmp122123		; <i16*> [#uses=1]
	%tmp125 = load i16* %tmp124, align 2		; <i16> [#uses=1]
	%tmp128 = load i16* getelementptr (%struct.regmngobj* @regmng, i32 0, i32 1), align 8		; <i16> [#uses=1]
	%tmp129 = icmp eq i16 %tmp125, %tmp128		; <i1> [#uses=1]
	store i32 %val44, i32* @cg_caller_call_site_var, align 4
	store i32 %val33, i32* @cg_caller_id_var, align 4
	br i1 %tmp129, label %cond_next307, label %cond_true132

cond_true132:		; preds = %bb112
	%tmp150 = load i8** getelementptr (%struct.regmngobj* @regmng, i32 0, i32 7), align 8		; <i8*> [#uses=1]
	%tmp159 = getelementptr i8* %tmp150, i64 %tmp122123		; <i8*> [#uses=1]
	%tmp160 = load i8* %tmp159, align 1		; <i8> [#uses=1]
	%tmp164165166169 = zext i8 %tmp160 to i64		; <i64> [#uses=1]
	%tmp170 = getelementptr %struct.regmngobj* @regmng, i32 0, i32 8, i64 %tmp164165166169		; <i8*> [#uses=1]
	%tmp171 = load i8* %tmp170, align 1		; <i8> [#uses=1]
	%cond = icmp eq i8 %tmp171, 0		; <i1> [#uses=2]
	store i32 %val44, i32* @cg_caller_call_site_var, align 4
	store i32 %val33, i32* @cg_caller_id_var, align 4
	br i1 %cond, label %cond_true197, label %cond_true174

cond_true174:		; preds = %cond_true132
	%tmp177 = load i8* getelementptr (%struct.regmngobj* @regmng, i32 0, i32 4), align 8		; <i8> [#uses=1]
	%tmp179 = icmp eq i8 %tmp177, 0		; <i1> [#uses=1]
	store i32 %val44, i32* @cg_caller_call_site_var, align 4
	store i32 %val33, i32* @cg_caller_id_var, align 4
	br i1 %tmp179, label %cond_true182, label %cond_next192

cond_true182:		; preds = %cond_true174
	store i32 %x.0.reg2mem.0, i32* getelementptr (%struct.regmngobj* @regmng, i32 0, i32 2), align 8
	store i32 %y.0.reg2mem.0.ph, i32* getelementptr (%struct.regmngobj* @regmng, i32 0, i32 3), align 8
	store i8 1, i8* getelementptr (%struct.regmngobj* @regmng, i32 0, i32 4), align 8
	%tmp309357 = add i32 %x.0.reg2mem.0, 1		; <i32> [#uses=1]
	%tmp313366 = icmp sgt i32 %tmp309357, %x2.0		; <i1> [#uses=1]
	%indvar.next = add i32 %indvar, 1		; <i32> [#uses=1]
	store i32 %val42, i32* @cg_caller_call_site_var, align 4
	store i32 %val31, i32* @cg_caller_id_var, align 4
	store i32 %val44, i32* @cg_caller_call_site_var, align 4
	store i32 %val33, i32* @cg_caller_id_var, align 4
	br i1 %tmp313366, label %bb316, label %bb112

cond_next192:		; preds = %cond_true174
	br i1 %cond, label %cond_true197, label %cond_next290

cond_true197:		; preds = %cond_next192, %cond_true132
	%tmp209 = load i32* %tmp8, align 8		; <i32> [#uses=1]
	%tmp212 = load i32* %tmp211, align 8		; <i32> [#uses=3]
	%tmp213 = icmp eq i32 %tmp209, %tmp212		; <i1> [#uses=1]
	br i1 %tmp213, label %cond_true216, label %cond_next262

cond_true216:		; preds = %cond_true197
	%tmp223 = shl i32 %tmp212, 1		; <i32> [#uses=2]
	%tmp231 = malloc %struct.pointt, i32 %tmp223		; <%struct.pointt*> [#uses=2]
	%tmpcast = bitcast %struct.pointt* %tmp231 to i8*		; <i8*> [#uses=1]
	%tmp241242 = sext i32 %tmp212 to i64		; <i64> [#uses=1]
	%tmp243 = shl i64 %tmp241242, 3		; <i64> [#uses=1]
	%tmp246 = load %struct.pointt** %tmp245, align 8		; <%struct.pointt*> [#uses=1]
	%tmp246249 = bitcast %struct.pointt* %tmp246 to i8*		; <i8*> [#uses=1]
	store i32 0, i32* @cg_caller_call_site_var, align 4
	store i32 7, i32* @cg_caller_id_var, align 4
	store i32 0, i32* @cg_caller_call_site_var, align 4
	store i32 37, i32* @cg_caller_id_var, align 4
	store i32 0, i32* @cg_caller_call_site_var, align 4
	store i32 38, i32* @cg_caller_id_var, align 4
	tail call void @llvm.memcpy.i64( i8* %tmpcast, i8* %tmp246249, i64 %tmp243, i32 4 )
	%tmp253 = load %struct.pointt** %tmp245, align 8		; <%struct.pointt*> [#uses=1]
	free %struct.pointt* %tmp253
	store %struct.pointt* %tmp231, %struct.pointt** %tmp245, align 8
	store i32 %tmp223, i32* %tmp211, align 8
	br label %cond_next262

cond_next262:		; preds = %cond_true216, %cond_true197
	%tmp265 = load %struct.pointt** %tmp245, align 8		; <%struct.pointt*> [#uses=2]
	%tmp268 = load i32* %tmp8, align 8		; <i32> [#uses=1]
	%tmp268276 = sext i32 %tmp268 to i64		; <i64> [#uses=2]
	%tmp278 = getelementptr %struct.pointt* %tmp265, i64 %tmp268276, i32 0		; <i32*> [#uses=1]
	store i32 %x.0.reg2mem.0, i32* %tmp278, align 4
	%tmp281 = getelementptr %struct.pointt* %tmp265, i64 %tmp268276, i32 1		; <i32*> [#uses=1]
	store i32 %y.0.reg2mem.0.ph, i32* %tmp281, align 4
	%tmp286 = load i32* %tmp8, align 8		; <i32> [#uses=1]
	%tmp287 = add i32 %tmp286, 1		; <i32> [#uses=1]
	store i32 %tmp287, i32* %tmp8, align 8
	br label %cond_next290

cond_next290:		; preds = %cond_next262, %cond_next192
	%tmp293 = load i16** getelementptr (%struct.regmngobj* @regmng, i32 0, i32 0), align 32		; <i16*> [#uses=1]
	%tmp296 = load i32* getelementptr (%struct.regmngobj* @regmng, i32 0, i32 16), align 8		; <i32> [#uses=1]
	%tmp298 = mul i32 %tmp296, %y.0.reg2mem.0.ph		; <i32> [#uses=1]
	%tmp300 = add i32 %tmp298, %x.0.reg2mem.0		; <i32> [#uses=1]
	%tmp303 = load i16* getelementptr (%struct.regmngobj* @regmng, i32 0, i32 1), align 8		; <i16> [#uses=1]
	%tmp300304 = sext i32 %tmp300 to i64		; <i64> [#uses=1]
	%tmp305 = getelementptr i16* %tmp293, i64 %tmp300304		; <i16*> [#uses=1]
	store i16 %tmp303, i16* %tmp305, align 2
	br label %cond_next307

cond_next307:		; preds = %cond_next290, %bb112
	%tmp309 = add i32 %x.0.reg2mem.0, 1		; <i32> [#uses=1]
	br label %bb310

bb310:		; preds = %cond_next307, %bb310.preheader
	%x.0 = phi i32 [ %tmp309, %cond_next307 ], [ %x1.0, %bb310.preheader ]		; <i32> [#uses=2]
	%val31 = load i32* @cg_caller_id_var, align 4		; <i32> [#uses=3]
	%val42 = load i32* @cg_caller_call_site_var, align 4		; <i32> [#uses=3]
	store i32 38, i32* @cg_caller_id_var, align 4
	call void @CallEdgeProfiler( i32 %val31, i32 %val42, i32 38 )
	%tmp313 = icmp sgt i32 %x.0, %x2.0		; <i1> [#uses=1]
	store i32 %val42, i32* @cg_caller_call_site_var, align 4
	store i32 %val31, i32* @cg_caller_id_var, align 4
	br i1 %tmp313, label %bb316, label %bb112

bb316:		; preds = %bb310, %cond_true182
	%tmp318 = add i32 %y.0.reg2mem.0.ph, 1		; <i32> [#uses=1]
	br label %bb319

bb319:		; preds = %bb316, %bb
	%y2.0 = phi i32 [ %y2.0.reg2mem.0.ph, %bb316 ], [ %tmp75, %bb ]		; <i32> [#uses=2]
	%y.0 = phi i32 [ %tmp318, %bb316 ], [ %y1.0, %bb ]		; <i32> [#uses=2]
	%tmp322 = icmp sgt i32 %y.0, %y2.0		; <i1> [#uses=1]
	br i1 %tmp322, label %bb328, label %bb310.preheader

bb328:		; preds = %bb319, %cond_true104
	%tmp327 = add i32 %j.0.reg2mem.0, 1		; <i32> [#uses=2]
	%tmp331 = load i32* %tmp330343, align 8		; <i32> [#uses=1]
	%tmp333 = icmp sgt i32 %tmp331, %tmp327		; <i1> [#uses=1]
	store i32 %val4, i32* @cg_caller_call_site_var, align 4
	store i32 %val3, i32* @cg_caller_id_var, align 4
	br i1 %tmp333, label %bb, label %return

return:		; preds = %bb328, %entry
	store i32 %val2, i32* @cg_caller_call_site_var, align 4
	store i32 %val, i32* @cg_caller_id_var, align 4
	ret void
}

define internal fastcc i8 @_ZN9regmngobj13findfreeplaceEiiRiS0_(i32 %x0, i32 %y0, i32* %xpl, i32* %ypl) zeroext nounwind  {
entry:
	%val = load i32* @cg_caller_id_var, align 4		; <i32> [#uses=2]
	%val2 = load i32* @cg_caller_call_site_var, align 4		; <i32> [#uses=2]
	store i32 8, i32* @cg_caller_id_var, align 4
	call void @CallEdgeProfiler( i32 %val, i32 %val2, i32 8 )
	%bound1arp = alloca %struct.boundart		; <%struct.boundart*> [#uses=5]
	%bound2arp = alloca %struct.boundart		; <%struct.boundart*> [#uses=5]
	store i8 0, i8* getelementptr (%struct.regmngobj* @regmng, i32 0, i32 4), align 8
	%tmp7 = load i16* getelementptr (%struct.regmngobj* @regmng, i32 0, i32 1), align 8		; <i16> [#uses=1]
	%tmp8 = add i16 %tmp7, 1		; <i16> [#uses=2]
	store i16 %tmp8, i16* getelementptr (%struct.regmngobj* @regmng, i32 0, i32 1), align 8
	%tmp14 = icmp eq i16 %tmp8, -1		; <i1> [#uses=1]
	br i1 %tmp14, label %cond_true, label %cond_next

cond_true:		; preds = %entry
	%tmp18 = load i32* getelementptr (%struct.regmngobj* @regmng, i32 0, i32 16), align 8		; <i32> [#uses=1]
	%tmp21 = load i32* getelementptr (%struct.regmngobj* @regmng, i32 0, i32 17), align 8		; <i32> [#uses=1]
	%tmp22 = mul i32 %tmp21, %tmp18		; <i32> [#uses=1]
	%tmp2223 = sext i32 %tmp22 to i64		; <i64> [#uses=1]
	%tmp24 = shl i64 %tmp2223, 1		; <i64> [#uses=1]
	%tmp27 = load i16** getelementptr (%struct.regmngobj* @regmng, i32 0, i32 0), align 32		; <i16*> [#uses=1]
	%tmp2728 = bitcast i16* %tmp27 to i8*		; <i8*> [#uses=1]
	store i32 0, i32* @cg_caller_call_site_var, align 4
	store i32 8, i32* @cg_caller_id_var, align 4
	call void @llvm.memset.i64( i8* %tmp2728, i8 0, i64 %tmp24, i32 2 )
	store i16 1, i16* getelementptr (%struct.regmngobj* @regmng, i32 0, i32 1), align 8
	br label %cond_next

cond_next:		; preds = %cond_true, %entry
	store i32 -1, i32* %xpl, align 4
	store i32 -1, i32* %ypl, align 4
	store i32 -1, i32* getelementptr (%struct.regmngobj* @regmng, i32 0, i32 2), align 8
	store i32 -1, i32* getelementptr (%struct.regmngobj* @regmng, i32 0, i32 3), align 8
	%tmp38 = getelementptr %struct.boundart* %bound1arp, i32 0, i32 2		; <i32*> [#uses=3]
	store i32 128, i32* %tmp38, align 8
	%tmp40 = getelementptr %struct.boundart* %bound1arp, i32 0, i32 1		; <i32*> [#uses=8]
	store i32 0, i32* %tmp40, align 8
	%tmp49651 = malloc [128 x %struct.pointt]		; <[128 x %struct.pointt]*> [#uses=3]
	%tmp49651.sub = getelementptr [128 x %struct.pointt]* %tmp49651, i32 0, i32 0		; <%struct.pointt*> [#uses=1]
	%tmp53 = getelementptr %struct.boundart* %bound1arp, i32 0, i32 0		; <%struct.pointt**> [#uses=6]
	store %struct.pointt* %tmp49651.sub, %struct.pointt** %tmp53, align 8
	%tmp56 = getelementptr %struct.boundart* %bound2arp, i32 0, i32 2		; <i32*> [#uses=1]
	store i32 128, i32* %tmp56, align 8
	%tmp58 = getelementptr %struct.boundart* %bound2arp, i32 0, i32 1		; <i32*> [#uses=2]
	store i32 0, i32* %tmp58, align 8
	%tmp69650 = malloc [128 x %struct.pointt]		; <[128 x %struct.pointt]*> [#uses=1]
	%tmp69650.sub = getelementptr [128 x %struct.pointt]* %tmp69650, i32 0, i32 0		; <%struct.pointt*> [#uses=1]
	%tmp74 = getelementptr %struct.boundart* %bound2arp, i32 0, i32 0		; <%struct.pointt**> [#uses=2]
	store %struct.pointt* %tmp69650.sub, %struct.pointt** %tmp74, align 8
	%tmp76 = icmp sgt i32 %x0, -1		; <i1> [#uses=1]
	%tmp79 = icmp sgt i32 %y0, -1		; <i1> [#uses=1]
	%tmp83 = and i1 %tmp79, %tmp76		; <i1> [#uses=1]
	br i1 %tmp83, label %cond_true86, label %cond_next285

cond_true86:		; preds = %cond_next
	%tmp89 = load i32* getelementptr (%struct.regmngobj* @regmng, i32 0, i32 12), align 8		; <i32> [#uses=1]
	%tmp91 = icmp slt i32 %tmp89, %x0		; <i1> [#uses=1]
	br i1 %tmp91, label %cond_next285, label %cond_true94

cond_true94:		; preds = %cond_true86
	%tmp97 = load i32* getelementptr (%struct.regmngobj* @regmng, i32 0, i32 13), align 8		; <i32> [#uses=1]
	%tmp99 = icmp slt i32 %tmp97, %y0		; <i1> [#uses=1]
	br i1 %tmp99, label %cond_next285, label %cond_true102

cond_true102:		; preds = %cond_true94
	%tmp105 = load i16** getelementptr (%struct.regmngobj* @regmng, i32 0, i32 0), align 32		; <i16*> [#uses=1]
	%tmp108 = load i32* getelementptr (%struct.regmngobj* @regmng, i32 0, i32 16), align 8		; <i32> [#uses=1]
	%tmp110 = mul i32 %tmp108, %y0		; <i32> [#uses=1]
	%tmp112 = add i32 %tmp110, %x0		; <i32> [#uses=1]
	%tmp112113 = sext i32 %tmp112 to i64		; <i64> [#uses=2]
	%tmp114 = getelementptr i16* %tmp105, i64 %tmp112113		; <i16*> [#uses=2]
	%tmp115 = load i16* %tmp114, align 2		; <i16> [#uses=1]
	%tmp118 = load i16* getelementptr (%struct.regmngobj* @regmng, i32 0, i32 1), align 8		; <i16> [#uses=2]
	%tmp119 = icmp eq i16 %tmp115, %tmp118		; <i1> [#uses=1]
	br i1 %tmp119, label %cond_next285, label %cond_true122

cond_true122:		; preds = %cond_true102
	%tmp139 = load i8** getelementptr (%struct.regmngobj* @regmng, i32 0, i32 7), align 8		; <i8*> [#uses=1]
	%tmp148 = getelementptr i8* %tmp139, i64 %tmp112113		; <i8*> [#uses=1]
	%tmp149 = load i8* %tmp148, align 1		; <i8> [#uses=1]
	%tmp153154155158 = zext i8 %tmp149 to i64		; <i64> [#uses=1]
	%tmp159 = getelementptr %struct.regmngobj* @regmng, i32 0, i32 8, i64 %tmp153154155158		; <i8*> [#uses=1]
	%tmp160 = load i8* %tmp159, align 1		; <i8> [#uses=1]
	%cond = icmp eq i8 %tmp160, 0		; <i1> [#uses=2]
	br i1 %cond, label %cond_next241, label %cond_true163

cond_true163:		; preds = %cond_true122
	%tmp166 = load i8* getelementptr (%struct.regmngobj* @regmng, i32 0, i32 4), align 8		; <i8> [#uses=1]
	%tmp168 = icmp eq i8 %tmp166, 0		; <i1> [#uses=1]
	br i1 %tmp168, label %cond_true171, label %cond_next181

cond_true171:		; preds = %cond_true163
	store i32 %x0, i32* getelementptr (%struct.regmngobj* @regmng, i32 0, i32 2), align 8
	store i32 %y0, i32* getelementptr (%struct.regmngobj* @regmng, i32 0, i32 3), align 8
	store i8 1, i8* getelementptr (%struct.regmngobj* @regmng, i32 0, i32 4), align 8
	br label %cond_next285

cond_next181:		; preds = %cond_true163
	br i1 %cond, label %cond_next241, label %cond_next265

cond_next241:		; preds = %cond_next181, %cond_true122
	%tmp255 = getelementptr [128 x %struct.pointt]* %tmp49651, i32 0, i64 0, i32 0		; <i32*> [#uses=1]
	store i32 %x0, i32* %tmp255, align 8
	%tmp258 = getelementptr [128 x %struct.pointt]* %tmp49651, i32 0, i64 0, i32 1		; <i32*> [#uses=1]
	store i32 %y0, i32* %tmp258, align 4
	store i32 1, i32* %tmp40, align 8
	br label %cond_next265

cond_next265:		; preds = %cond_next241, %cond_next181
	store i16 %tmp118, i16* %tmp114, align 2
	br label %cond_next285

cond_next285:		; preds = %cond_next265, %cond_true171, %cond_true102, %cond_true94, %cond_true86, %cond_next
	%tmp287 = add i32 %x0, -1		; <i32> [#uses=2]
	%tmp289 = add i32 %y0, -1		; <i32> [#uses=2]
	%tmp291 = add i32 %x0, 1		; <i32> [#uses=2]
	%tmp293 = add i32 %y0, 1		; <i32> [#uses=2]
	%tmp295 = icmp slt i32 %tmp287, 0		; <i1> [#uses=1]
	%x1.0 = select i1 %tmp295, i32 0, i32 %tmp287		; <i32> [#uses=1]
	%tmp301 = icmp slt i32 %tmp289, 0		; <i1> [#uses=1]
	%y1.0 = select i1 %tmp301, i32 0, i32 %tmp289		; <i32> [#uses=3]
	%tmp308 = load i32* getelementptr (%struct.regmngobj* @regmng, i32 0, i32 12), align 8		; <i32> [#uses=2]
	%tmp310 = icmp slt i32 %tmp308, %tmp291		; <i1> [#uses=1]
	%x2.0 = select i1 %tmp310, i32 %tmp308, i32 %tmp291		; <i32> [#uses=2]
	%tmp320 = load i32* getelementptr (%struct.regmngobj* @regmng, i32 0, i32 13), align 8		; <i32> [#uses=3]
	%tmp322 = icmp slt i32 %tmp320, %tmp293		; <i1> [#uses=1]
	br i1 %tmp322, label %cond_true325, label %bb533

cond_true325:		; preds = %cond_next285
	%tmp536616 = icmp sgt i32 %y1.0, %tmp320		; <i1> [#uses=1]
	br i1 %tmp536616, label %bb539, label %bb524.preheader

bb524.preheader:		; preds = %bb533, %cond_true325
	%y2.0.reg2mem.0.ph = phi i32 [ %tmp320, %cond_true325 ], [ %y2.0, %bb533 ]		; <i32> [#uses=1]
	%y.0.reg2mem.0.ph = phi i32 [ %y1.0, %cond_true325 ], [ %y.0, %bb533 ]		; <i32> [#uses=5]
	br label %bb524

bb333:		; preds = %bb524, %cond_true403
	%indvar = phi i32 [ %indvar.next, %cond_true403 ], [ 0, %bb524 ]		; <i32> [#uses=2]
	%val33 = load i32* @cg_caller_id_var, align 4		; <i32> [#uses=5]
	%val44 = load i32* @cg_caller_call_site_var, align 4		; <i32> [#uses=5]
	store i32 42, i32* @cg_caller_id_var, align 4
	call void @CallEdgeProfiler( i32 %val33, i32 %val44, i32 42 )
	%x.0.reg2mem.0 = add i32 %indvar, %x.0		; <i32> [#uses=6]
	%tmp336 = load i16** getelementptr (%struct.regmngobj* @regmng, i32 0, i32 0), align 32		; <i16*> [#uses=1]
	%tmp339 = load i32* getelementptr (%struct.regmngobj* @regmng, i32 0, i32 16), align 8		; <i32> [#uses=1]
	%tmp341 = mul i32 %tmp339, %y.0.reg2mem.0.ph		; <i32> [#uses=1]
	%tmp343 = add i32 %tmp341, %x.0.reg2mem.0		; <i32> [#uses=1]
	%tmp343344 = sext i32 %tmp343 to i64		; <i64> [#uses=2]
	%tmp345 = getelementptr i16* %tmp336, i64 %tmp343344		; <i16*> [#uses=1]
	%tmp346 = load i16* %tmp345, align 2		; <i16> [#uses=1]
	%tmp349 = load i16* getelementptr (%struct.regmngobj* @regmng, i32 0, i32 1), align 8		; <i16> [#uses=1]
	%tmp350 = icmp eq i16 %tmp346, %tmp349		; <i1> [#uses=1]
	store i32 %val44, i32* @cg_caller_call_site_var, align 4
	store i32 %val33, i32* @cg_caller_id_var, align 4
	br i1 %tmp350, label %cond_next521, label %cond_true353

cond_true353:		; preds = %bb333
	%tmp371 = load i8** getelementptr (%struct.regmngobj* @regmng, i32 0, i32 7), align 8		; <i8*> [#uses=1]
	%tmp380 = getelementptr i8* %tmp371, i64 %tmp343344		; <i8*> [#uses=1]
	%tmp381 = load i8* %tmp380, align 1		; <i8> [#uses=1]
	%tmp385386387390 = zext i8 %tmp381 to i64		; <i64> [#uses=1]
	%tmp391 = getelementptr %struct.regmngobj* @regmng, i32 0, i32 8, i64 %tmp385386387390		; <i8*> [#uses=1]
	%tmp392 = load i8* %tmp391, align 1		; <i8> [#uses=1]
	%cond604 = icmp eq i8 %tmp392, 0		; <i1> [#uses=2]
	store i32 %val44, i32* @cg_caller_call_site_var, align 4
	store i32 %val33, i32* @cg_caller_id_var, align 4
	br i1 %cond604, label %cond_true418, label %cond_true395

cond_true395:		; preds = %cond_true353
	%tmp398 = load i8* getelementptr (%struct.regmngobj* @regmng, i32 0, i32 4), align 8		; <i8> [#uses=1]
	%tmp400 = icmp eq i8 %tmp398, 0		; <i1> [#uses=1]
	store i32 %val44, i32* @cg_caller_call_site_var, align 4
	store i32 %val33, i32* @cg_caller_id_var, align 4
	br i1 %tmp400, label %cond_true403, label %cond_next413

cond_true403:		; preds = %cond_true395
	store i32 %x.0.reg2mem.0, i32* getelementptr (%struct.regmngobj* @regmng, i32 0, i32 2), align 8
	store i32 %y.0.reg2mem.0.ph, i32* getelementptr (%struct.regmngobj* @regmng, i32 0, i32 3), align 8
	store i8 1, i8* getelementptr (%struct.regmngobj* @regmng, i32 0, i32 4), align 8
	%tmp523617 = add i32 %x.0.reg2mem.0, 1		; <i32> [#uses=1]
	%tmp527626 = icmp sgt i32 %tmp523617, %x2.0		; <i1> [#uses=1]
	%indvar.next = add i32 %indvar, 1		; <i32> [#uses=1]
	store i32 %val42, i32* @cg_caller_call_site_var, align 4
	store i32 %val31, i32* @cg_caller_id_var, align 4
	store i32 %val44, i32* @cg_caller_call_site_var, align 4
	store i32 %val33, i32* @cg_caller_id_var, align 4
	br i1 %tmp527626, label %bb530, label %bb333

cond_next413:		; preds = %cond_true395
	br i1 %cond604, label %cond_true418, label %cond_next504

cond_true418:		; preds = %cond_next413, %cond_true353
	%tmp430 = load i32* %tmp40, align 8		; <i32> [#uses=1]
	%tmp432 = load i32* %tmp38, align 8		; <i32> [#uses=3]
	%tmp433 = icmp eq i32 %tmp430, %tmp432		; <i1> [#uses=1]
	br i1 %tmp433, label %cond_true436, label %cond_next480

cond_true436:		; preds = %cond_true418
	%tmp443 = shl i32 %tmp432, 1		; <i32> [#uses=2]
	%tmp453 = malloc %struct.pointt, i32 %tmp443		; <%struct.pointt*> [#uses=2]
	%tmpcast606 = bitcast %struct.pointt* %tmp453 to i8*		; <i8*> [#uses=1]
	%tmp462463 = sext i32 %tmp432 to i64		; <i64> [#uses=1]
	%tmp464 = shl i64 %tmp462463, 3		; <i64> [#uses=1]
	%tmp466 = load %struct.pointt** %tmp53, align 8		; <%struct.pointt*> [#uses=1]
	%tmp466469 = bitcast %struct.pointt* %tmp466 to i8*		; <i8*> [#uses=1]
	store i32 1, i32* @cg_caller_call_site_var, align 4
	store i32 8, i32* @cg_caller_id_var, align 4
	store i32 0, i32* @cg_caller_call_site_var, align 4
	store i32 41, i32* @cg_caller_id_var, align 4
	call void @llvm.memcpy.i64( i8* %tmpcast606, i8* %tmp466469, i64 %tmp464, i32 4 )
	%tmp472 = load %struct.pointt** %tmp53, align 8		; <%struct.pointt*> [#uses=1]
	free %struct.pointt* %tmp472
	store %struct.pointt* %tmp453, %struct.pointt** %tmp53, align 8
	store i32 %tmp443, i32* %tmp38, align 8
	br label %cond_next480

cond_next480:		; preds = %cond_true436, %cond_true418
	%tmp482 = load %struct.pointt** %tmp53, align 8		; <%struct.pointt*> [#uses=2]
	%tmp484 = load i32* %tmp40, align 8		; <i32> [#uses=1]
	%tmp484492 = sext i32 %tmp484 to i64		; <i64> [#uses=2]
	%tmp494 = getelementptr %struct.pointt* %tmp482, i64 %tmp484492, i32 0		; <i32*> [#uses=1]
	store i32 %x.0.reg2mem.0, i32* %tmp494, align 4
	%tmp497 = getelementptr %struct.pointt* %tmp482, i64 %tmp484492, i32 1		; <i32*> [#uses=1]
	store i32 %y.0.reg2mem.0.ph, i32* %tmp497, align 4
	%tmp501 = load i32* %tmp40, align 8		; <i32> [#uses=1]
	%tmp502 = add i32 %tmp501, 1		; <i32> [#uses=1]
	store i32 %tmp502, i32* %tmp40, align 8
	br label %cond_next504

cond_next504:		; preds = %cond_next480, %cond_next413
	%tmp507 = load i16** getelementptr (%struct.regmngobj* @regmng, i32 0, i32 0), align 32		; <i16*> [#uses=1]
	%tmp510 = load i32* getelementptr (%struct.regmngobj* @regmng, i32 0, i32 16), align 8		; <i32> [#uses=1]
	%tmp512 = mul i32 %tmp510, %y.0.reg2mem.0.ph		; <i32> [#uses=1]
	%tmp514 = add i32 %tmp512, %x.0.reg2mem.0		; <i32> [#uses=1]
	%tmp517 = load i16* getelementptr (%struct.regmngobj* @regmng, i32 0, i32 1), align 8		; <i16> [#uses=1]
	%tmp514518 = sext i32 %tmp514 to i64		; <i64> [#uses=1]
	%tmp519 = getelementptr i16* %tmp507, i64 %tmp514518		; <i16*> [#uses=1]
	store i16 %tmp517, i16* %tmp519, align 2
	br label %cond_next521

cond_next521:		; preds = %cond_next504, %bb333
	%tmp523 = add i32 %x.0.reg2mem.0, 1		; <i32> [#uses=1]
	br label %bb524

bb524:		; preds = %cond_next521, %bb524.preheader
	%x.0 = phi i32 [ %tmp523, %cond_next521 ], [ %x1.0, %bb524.preheader ]		; <i32> [#uses=2]
	%val31 = load i32* @cg_caller_id_var, align 4		; <i32> [#uses=3]
	%val42 = load i32* @cg_caller_call_site_var, align 4		; <i32> [#uses=3]
	store i32 41, i32* @cg_caller_id_var, align 4
	call void @CallEdgeProfiler( i32 %val31, i32 %val42, i32 41 )
	%tmp527 = icmp sgt i32 %x.0, %x2.0		; <i1> [#uses=1]
	store i32 %val42, i32* @cg_caller_call_site_var, align 4
	store i32 %val31, i32* @cg_caller_id_var, align 4
	br i1 %tmp527, label %bb530, label %bb333

bb530:		; preds = %bb524, %cond_true403
	%tmp532 = add i32 %y.0.reg2mem.0.ph, 1		; <i32> [#uses=1]
	br label %bb533

bb533:		; preds = %bb530, %cond_next285
	%y2.0 = phi i32 [ %y2.0.reg2mem.0.ph, %bb530 ], [ %tmp293, %cond_next285 ]		; <i32> [#uses=2]
	%y.0 = phi i32 [ %tmp532, %bb530 ], [ %y1.0, %cond_next285 ]		; <i32> [#uses=2]
	%tmp536 = icmp sgt i32 %y.0, %y2.0		; <i1> [#uses=1]
	br i1 %tmp536, label %bb539, label %bb524.preheader

bb539:		; preds = %bb533, %cond_true325
	%boundl.1627 = load i32* %tmp40, align 4		; <i32> [#uses=1]
	%tmp559628 = icmp eq i32 %boundl.1627, 0		; <i1> [#uses=1]
	br i1 %tmp559628, label %bb571, label %cond_next563

bb542:		; preds = %cond_next563
	br i1 %flodd.0.reg2mem.0, label %cond_true548, label %cond_false

cond_true548:		; preds = %bb542
	store i32 2, i32* @cg_caller_call_site_var, align 4
	store i32 8, i32* @cg_caller_id_var, align 4
	store i32 0, i32* @cg_caller_call_site_var, align 4
	store i32 40, i32* @cg_caller_id_var, align 4
	call fastcc void @_ZN9regmngobj10makebound2ER9flexarrayI6pointtES3_( %struct.boundart* %bound1arp, %struct.boundart* %bound2arp )
	%boundl.1629 = load i32* %tmp58, align 4		; <i32> [#uses=1]
	%tmp559630 = icmp eq i32 %boundl.1629, 0		; <i1> [#uses=1]
	store i32 %val4, i32* @cg_caller_call_site_var, align 4
	store i32 %val3, i32* @cg_caller_id_var, align 4
	br i1 %tmp559630, label %bb571, label %cond_next563

cond_false:		; preds = %bb542
	store i32 3, i32* @cg_caller_call_site_var, align 4
	store i32 8, i32* @cg_caller_id_var, align 4
	store i32 1, i32* @cg_caller_call_site_var, align 4
	store i32 40, i32* @cg_caller_id_var, align 4
	call fastcc void @_ZN9regmngobj10makebound2ER9flexarrayI6pointtES3_( %struct.boundart* %bound2arp, %struct.boundart* %bound1arp )
	%boundl.1 = load i32* %tmp40, align 4		; <i32> [#uses=1]
	%tmp559 = icmp eq i32 %boundl.1, 0		; <i1> [#uses=1]
	store i32 %val4, i32* @cg_caller_call_site_var, align 4
	store i32 %val3, i32* @cg_caller_id_var, align 4
	br i1 %tmp559, label %bb571, label %cond_next563

cond_next563:		; preds = %cond_false, %cond_true548, %bb539
	%flodd.0.reg2mem.0 = phi i1 [ true, %bb539 ], [ false, %cond_true548 ], [ true, %cond_false ]		; <i1> [#uses=1]
	%val3 = load i32* @cg_caller_id_var, align 4		; <i32> [#uses=4]
	%val4 = load i32* @cg_caller_call_site_var, align 4		; <i32> [#uses=4]
	store i32 40, i32* @cg_caller_id_var, align 4
	call void @CallEdgeProfiler( i32 %val3, i32 %val4, i32 40 )
	%tmp566 = load i8* getelementptr (%struct.regmngobj* @regmng, i32 0, i32 4), align 8		; <i8> [#uses=1]
	%tmp568 = icmp eq i8 %tmp566, 0		; <i1> [#uses=1]
	store i32 %val4, i32* @cg_caller_call_site_var, align 4
	store i32 %val3, i32* @cg_caller_id_var, align 4
	br i1 %tmp568, label %bb542, label %bb571

bb571:		; preds = %cond_next563, %cond_false, %cond_true548, %bb539
	%tmp573 = load %struct.pointt** %tmp53, align 8		; <%struct.pointt*> [#uses=1]
	free %struct.pointt* %tmp573
	%tmp578 = load %struct.pointt** %tmp74, align 8		; <%struct.pointt*> [#uses=1]
	free %struct.pointt* %tmp578
	%tmp584 = load i32* getelementptr (%struct.regmngobj* @regmng, i32 0, i32 2), align 8		; <i32> [#uses=1]
	store i32 %tmp584, i32* %xpl, align 4
	%tmp588 = load i32* getelementptr (%struct.regmngobj* @regmng, i32 0, i32 3), align 8		; <i32> [#uses=1]
	store i32 %tmp588, i32* %ypl, align 4
	%tmp592 = load i8* getelementptr (%struct.regmngobj* @regmng, i32 0, i32 4), align 8		; <i8> [#uses=1]
	store i32 %val2, i32* @cg_caller_call_site_var, align 4
	store i32 %val, i32* @cg_caller_id_var, align 4
	ret i8 %tmp592
}

declare void @llvm.memset.i64(i8*, i8, i64, i32) nounwind 

define internal fastcc void @_ZN9regmngobj6createEv() nounwind  {
entry:
	%val = load i32* @cg_caller_id_var, align 4		; <i32> [#uses=2]
	%val2 = load i32* @cg_caller_call_site_var, align 4		; <i32> [#uses=2]
	store i32 9, i32* @cg_caller_id_var, align 4
	call void @CallEdgeProfiler( i32 %val, i32 %val2, i32 9 )
	store i32 16, i32* getelementptr (%struct.regmngobj* @regmng, i32 0, i32 18, i32 5), align 8
	store i32 0, i32* getelementptr (%struct.regmngobj* @regmng, i32 0, i32 18, i32 4), align 8
	%tmp106.i = malloc [16 x %struct.regobj*]		; <[16 x %struct.regobj*]*> [#uses=1]
	%tmp106.sub.i = getelementptr [16 x %struct.regobj*]* %tmp106.i, i32 0, i32 0		; <%struct.regobj**> [#uses=1]
	store %struct.regobj** %tmp106.sub.i, %struct.regobj*** getelementptr (%struct.regmngobj* @regmng, i32 0, i32 18, i32 0), align 8
	store i32 16, i32* getelementptr (%struct.regmngobj* @regmng, i32 0, i32 18, i32 2, i32 2), align 8
	store i32 0, i32* getelementptr (%struct.regmngobj* @regmng, i32 0, i32 18, i32 2, i32 1), align 8
	%tmp363.i = malloc [16 x i32]		; <[16 x i32]*> [#uses=1]
	%tmp363.sub.i = getelementptr [16 x i32]* %tmp363.i, i32 0, i32 0		; <i32*> [#uses=1]
	store i32* %tmp363.sub.i, i32** getelementptr (%struct.regmngobj* @regmng, i32 0, i32 18, i32 2, i32 0), align 8
	store i32 16, i32* getelementptr (%struct.regmngobj* @regmng, i32 0, i32 18, i32 3, i32 2), align 8
	store i32 0, i32* getelementptr (%struct.regmngobj* @regmng, i32 0, i32 18, i32 3, i32 1), align 8
	%tmp662.i = malloc [16 x i32]		; <[16 x i32]*> [#uses=1]
	%tmp662.sub.i = getelementptr [16 x i32]* %tmp662.i, i32 0, i32 0		; <i32*> [#uses=1]
	store i32* %tmp662.sub.i, i32** getelementptr (%struct.regmngobj* @regmng, i32 0, i32 18, i32 3, i32 0), align 8
	store i32 16, i32* getelementptr (%struct.regmngobj* @regmng, i32 0, i32 18, i32 1, i32 2), align 8
	store i32 0, i32* getelementptr (%struct.regmngobj* @regmng, i32 0, i32 18, i32 1, i32 1), align 8
	%tmp901.i = malloc [16 x i32]		; <[16 x i32]*> [#uses=1]
	%tmp901.sub.i = getelementptr [16 x i32]* %tmp901.i, i32 0, i32 0		; <i32*> [#uses=1]
	store i32* %tmp901.sub.i, i32** getelementptr (%struct.regmngobj* @regmng, i32 0, i32 18, i32 1, i32 0), align 8
	br label %bb94.i

bb94.i:		; preds = %cond_next.i, %entry
	%tmp101.rle.i = phi i32 [ 0, %entry ], [ %tmp151.i, %cond_next.i ]		; <i32> [#uses=1]
	%i.0.reg2mem.0.i = phi i32 [ 0, %entry ], [ %tmp155.i, %cond_next.i ]		; <i32> [#uses=2]
	%val3 = load i32* @cg_caller_id_var, align 4		; <i32> [#uses=2]
	%val4 = load i32* @cg_caller_call_site_var, align 4		; <i32> [#uses=2]
	store i32 43, i32* @cg_caller_id_var, align 4
	call void @CallEdgeProfiler( i32 %val3, i32 %val4, i32 43 )
	%tmp104.i = load i32* getelementptr (%struct.regmngobj* @regmng, i32 0, i32 18, i32 1, i32 2), align 8		; <i32> [#uses=3]
	%tmp105.i = icmp eq i32 %tmp101.rle.i, %tmp104.i		; <i1> [#uses=1]
	br i1 %tmp105.i, label %cond_true.i, label %cond_next.i

cond_true.i:		; preds = %bb94.i
	%tmp112.i = shl i32 %tmp104.i, 1		; <i32> [#uses=2]
	%tmp116.i = malloc i32, i32 %tmp112.i		; <i32*> [#uses=2]
	%tmpcast.i = bitcast i32* %tmp116.i to i8*		; <i8*> [#uses=1]
	%tmp120121.i = sext i32 %tmp104.i to i64		; <i64> [#uses=1]
	%tmp122.i = shl i64 %tmp120121.i, 2		; <i64> [#uses=1]
	%tmp125.i = load i32** getelementptr (%struct.regmngobj* @regmng, i32 0, i32 18, i32 1, i32 0), align 8		; <i32*> [#uses=1]
	%tmp125128.i = bitcast i32* %tmp125.i to i8*		; <i8*> [#uses=1]
	store i32 0, i32* @cg_caller_call_site_var, align 4
	store i32 9, i32* @cg_caller_id_var, align 4
	store i32 0, i32* @cg_caller_call_site_var, align 4
	store i32 43, i32* @cg_caller_id_var, align 4
	tail call void @llvm.memcpy.i64( i8* %tmpcast.i, i8* %tmp125128.i, i64 %tmp122.i, i32 4 ) nounwind 
	%tmp131.i = load i32** getelementptr (%struct.regmngobj* @regmng, i32 0, i32 18, i32 1, i32 0), align 8		; <i32*> [#uses=1]
	free i32* %tmp131.i
	store i32* %tmp116.i, i32** getelementptr (%struct.regmngobj* @regmng, i32 0, i32 18, i32 1, i32 0), align 8
	store i32 %tmp112.i, i32* getelementptr (%struct.regmngobj* @regmng, i32 0, i32 18, i32 1, i32 2), align 8
	br label %cond_next.i

cond_next.i:		; preds = %cond_true.i, %bb94.i
	%tmp141.i = load i32** getelementptr (%struct.regmngobj* @regmng, i32 0, i32 18, i32 1, i32 0), align 8		; <i32*> [#uses=1]
	%tmp144.i = load i32* getelementptr (%struct.regmngobj* @regmng, i32 0, i32 18, i32 1, i32 1), align 8		; <i32> [#uses=1]
	%tmp144145.i = sext i32 %tmp144.i to i64		; <i64> [#uses=1]
	%tmp146.i = getelementptr i32* %tmp141.i, i64 %tmp144145.i		; <i32*> [#uses=1]
	store i32 %i.0.reg2mem.0.i, i32* %tmp146.i, align 4
	%tmp150.i = load i32* getelementptr (%struct.regmngobj* @regmng, i32 0, i32 18, i32 1, i32 1), align 8		; <i32> [#uses=1]
	%tmp151.i = add i32 %tmp150.i, 1		; <i32> [#uses=2]
	store i32 %tmp151.i, i32* getelementptr (%struct.regmngobj* @regmng, i32 0, i32 18, i32 1, i32 1), align 8
	%tmp155.i = add i32 %i.0.reg2mem.0.i, 1		; <i32> [#uses=2]
	%tmp159.i = load i32* getelementptr (%struct.regmngobj* @regmng, i32 0, i32 18, i32 5), align 8		; <i32> [#uses=1]
	%tmp161.i = icmp sgt i32 %tmp159.i, %tmp155.i		; <i1> [#uses=1]
	store i32 %val4, i32* @cg_caller_call_site_var, align 4
	store i32 %val3, i32* @cg_caller_id_var, align 4
	br i1 %tmp161.i, label %bb94.i, label %_ZN15largesolidarrayIP6regobjE6createEi.exit

_ZN15largesolidarrayIP6regobjE6createEi.exit:		; preds = %cond_next.i
	store %struct.regobj** null, %struct.regobj*** getelementptr (%struct.regmngobj* @regmng, i32 0, i32 6), align 8
	store i8* null, i8** getelementptr (%struct.regmngobj* @regmng, i32 0, i32 7), align 8
	store i16* null, i16** getelementptr (%struct.regmngobj* @regmng, i32 0, i32 0), align 32
	store i32 0, i32* getelementptr (%struct.regmngobj* @regmng, i32 0, i32 5), align 8
	store i32 %val2, i32* @cg_caller_call_site_var, align 4
	store i32 %val, i32* @cg_caller_id_var, align 4
	ret void
}

declare i32 @open(i8*, i32, ...)

declare i64 @read(i32, i8*, i64)

declare i32 @close(i32)

define internal fastcc void @_ZN9regmngobj20definemiddleregpointEv() nounwind  {
entry:
	%val = load i32* @cg_caller_id_var, align 4		; <i32> [#uses=2]
	%val2 = load i32* @cg_caller_call_site_var, align 4		; <i32> [#uses=2]
	store i32 10, i32* @cg_caller_id_var, align 4
	call void @CallEdgeProfiler( i32 %val, i32 %val2, i32 10 )
	%tmp47206 = load i32* getelementptr (%struct.regmngobj* @regmng, i32 0, i32 18, i32 4), align 8		; <i32> [#uses=1]
	%tmp49208 = icmp sgt i32 %tmp47206, 0		; <i1> [#uses=1]
	br i1 %tmp49208, label %bb, label %bb112

bb:		; preds = %bb, %entry
	%i.0.reg2mem.0 = phi i32 [ %tmp42, %bb ], [ 0, %entry ]		; <i32> [#uses=2]
	%val3 = load i32* @cg_caller_id_var, align 4		; <i32> [#uses=2]
	%val4 = load i32* @cg_caller_call_site_var, align 4		; <i32> [#uses=2]
	store i32 44, i32* @cg_caller_id_var, align 4
	call void @CallEdgeProfiler( i32 %val3, i32 %val4, i32 44 )
	%tmp13 = load %struct.regobj*** getelementptr (%struct.regmngobj* @regmng, i32 0, i32 18, i32 0), align 8		; <%struct.regobj**> [#uses=1]
	%tmp1415 = sext i32 %i.0.reg2mem.0 to i64		; <i64> [#uses=2]
	%tmp16 = getelementptr %struct.regobj** %tmp13, i64 %tmp1415		; <%struct.regobj**> [#uses=1]
	%tmp20 = load %struct.regobj** %tmp16, align 8		; <%struct.regobj*> [#uses=1]
	%tmp22 = getelementptr %struct.regobj* %tmp20, i32 0, i32 5, i32 0		; <i32*> [#uses=1]
	store i32 0, i32* %tmp22, align 8
	%tmp31 = load %struct.regobj*** getelementptr (%struct.regmngobj* @regmng, i32 0, i32 18, i32 0), align 8		; <%struct.regobj**> [#uses=1]
	%tmp34 = getelementptr %struct.regobj** %tmp31, i64 %tmp1415		; <%struct.regobj**> [#uses=1]
	%tmp38 = load %struct.regobj** %tmp34, align 8		; <%struct.regobj*> [#uses=1]
	%tmp40 = getelementptr %struct.regobj* %tmp38, i32 0, i32 5, i32 1		; <i32*> [#uses=1]
	store i32 0, i32* %tmp40, align 8
	%tmp42 = add i32 %i.0.reg2mem.0, 1		; <i32> [#uses=2]
	%tmp47 = load i32* getelementptr (%struct.regmngobj* @regmng, i32 0, i32 18, i32 4), align 8		; <i32> [#uses=1]
	%tmp49 = icmp sgt i32 %tmp47, %tmp42		; <i1> [#uses=1]
	store i32 %val4, i32* @cg_caller_call_site_var, align 4
	store i32 %val3, i32* @cg_caller_id_var, align 4
	br i1 %tmp49, label %bb, label %bb112

bb53:		; preds = %bb101.outer, %cond_next
	%x.0216 = phi i32 [ %tmp100, %cond_next ], [ 0, %bb101.outer ]		; <i32> [#uses=3]
	%val35 = load i32* @cg_caller_id_var, align 4		; <i32> [#uses=2]
	%val46 = load i32* @cg_caller_call_site_var, align 4		; <i32> [#uses=2]
	store i32 47, i32* @cg_caller_id_var, align 4
	call void @CallEdgeProfiler( i32 %val35, i32 %val46, i32 47 )
	%tmp63 = load %struct.regobj*** getelementptr (%struct.regmngobj* @regmng, i32 0, i32 6), align 8		; <%struct.regobj**> [#uses=1]
	%tmp66 = load i32* getelementptr (%struct.regmngobj* @regmng, i32 0, i32 16), align 8		; <i32> [#uses=1]
	%tmp68 = mul i32 %tmp66, %y.0.reg2mem.0.ph		; <i32> [#uses=1]
	%tmp70 = add i32 %tmp68, %x.0216		; <i32> [#uses=1]
	%tmp7071 = sext i32 %tmp70 to i64		; <i64> [#uses=1]
	%tmp72 = getelementptr %struct.regobj** %tmp63, i64 %tmp7071		; <%struct.regobj**> [#uses=1]
	%tmp76 = load %struct.regobj** %tmp72, align 8		; <%struct.regobj*> [#uses=3]
	%tmp78 = icmp eq %struct.regobj* %tmp76, null		; <i1> [#uses=1]
	br i1 %tmp78, label %cond_next, label %cond_true

cond_true:		; preds = %bb53
	%tmp83 = getelementptr %struct.regobj* %tmp76, i32 0, i32 5, i32 0		; <i32*> [#uses=2]
	%tmp84 = load i32* %tmp83, align 8		; <i32> [#uses=1]
	%tmp86 = add i32 %tmp84, %x.0216		; <i32> [#uses=1]
	store i32 %tmp86, i32* %tmp83, align 8
	%tmp92 = getelementptr %struct.regobj* %tmp76, i32 0, i32 5, i32 1		; <i32*> [#uses=2]
	%tmp93 = load i32* %tmp92, align 8		; <i32> [#uses=1]
	%tmp95 = add i32 %tmp93, %y.0.reg2mem.0.ph		; <i32> [#uses=1]
	store i32 %tmp95, i32* %tmp92, align 8
	br label %cond_next

cond_next:		; preds = %cond_true, %bb53
	%tmp100 = add i32 %x.0216, 1		; <i32> [#uses=2]
	%tmp104 = load i32* getelementptr (%struct.regmngobj* @regmng, i32 0, i32 12), align 8		; <i32> [#uses=1]
	%tmp106 = icmp slt i32 %tmp104, %tmp100		; <i1> [#uses=1]
	store i32 %val46, i32* @cg_caller_call_site_var, align 4
	store i32 %val35, i32* @cg_caller_id_var, align 4
	br i1 %tmp106, label %bb109, label %bb53

bb109:		; preds = %bb101.outer, %cond_next
	%tmp111 = add i32 %y.0.reg2mem.0.ph, 1		; <i32> [#uses=2]
	%tmp115213 = load i32* getelementptr (%struct.regmngobj* @regmng, i32 0, i32 13), align 8		; <i32> [#uses=1]
	%tmp117215 = icmp slt i32 %tmp115213, %tmp111		; <i1> [#uses=1]
	store i32 %val44, i32* @cg_caller_call_site_var, align 4
	store i32 %val33, i32* @cg_caller_id_var, align 4
	br i1 %tmp117215, label %bb192.preheader, label %bb101.outer

bb101.outer:		; preds = %bb112, %bb109
	%y.0.reg2mem.0.ph = phi i32 [ %tmp111, %bb109 ], [ 0, %bb112 ]		; <i32> [#uses=3]
	%val33 = load i32* @cg_caller_id_var, align 4		; <i32> [#uses=2]
	%val44 = load i32* @cg_caller_call_site_var, align 4		; <i32> [#uses=2]
	store i32 46, i32* @cg_caller_id_var, align 4
	call void @CallEdgeProfiler( i32 %val33, i32 %val44, i32 46 )
	%tmp104218 = load i32* getelementptr (%struct.regmngobj* @regmng, i32 0, i32 12), align 8		; <i32> [#uses=1]
	%tmp106219 = icmp slt i32 %tmp104218, 0		; <i1> [#uses=1]
	br i1 %tmp106219, label %bb109, label %bb53

bb112:		; preds = %bb, %entry
	%tmp115 = load i32* getelementptr (%struct.regmngobj* @regmng, i32 0, i32 13), align 8		; <i32> [#uses=1]
	%tmp117 = icmp slt i32 %tmp115, 0		; <i1> [#uses=1]
	br i1 %tmp117, label %bb192.preheader, label %bb101.outer

bb192.preheader:		; preds = %bb112, %bb109
	%tmp196222 = load i32* getelementptr (%struct.regmngobj* @regmng, i32 0, i32 18, i32 4), align 8		; <i32> [#uses=1]
	%tmp198223 = icmp sgt i32 %tmp196222, 0		; <i1> [#uses=1]
	br i1 %tmp198223, label %bb121, label %return

bb121:		; preds = %cond_next189, %bb192.preheader
	%i.1220 = phi i32 [ %tmp191, %cond_next189 ], [ 0, %bb192.preheader ]		; <i32> [#uses=2]
	%val31 = load i32* @cg_caller_id_var, align 4		; <i32> [#uses=2]
	%val42 = load i32* @cg_caller_call_site_var, align 4		; <i32> [#uses=2]
	store i32 45, i32* @cg_caller_id_var, align 4
	call void @CallEdgeProfiler( i32 %val31, i32 %val42, i32 45 )
	%tmp130 = load %struct.regobj*** getelementptr (%struct.regmngobj* @regmng, i32 0, i32 18, i32 0), align 8		; <%struct.regobj**> [#uses=1]
	%tmp131132 = sext i32 %i.1220 to i64		; <i64> [#uses=1]
	%tmp133 = getelementptr %struct.regobj** %tmp130, i64 %tmp131132		; <%struct.regobj**> [#uses=1]
	%tmp137 = load %struct.regobj** %tmp133, align 8		; <%struct.regobj*> [#uses=3]
	%tmp139 = getelementptr %struct.regobj* %tmp137, i32 0, i32 4		; <i32*> [#uses=1]
	%tmp140 = load i32* %tmp139, align 8		; <i32> [#uses=2]
	%tmp141 = icmp sgt i32 %tmp140, 0		; <i1> [#uses=1]
	br i1 %tmp141, label %cond_true144, label %cond_next189

cond_true144:		; preds = %bb121
	%tmp147 = getelementptr %struct.regobj* %tmp137, i32 0, i32 5, i32 0		; <i32*> [#uses=2]
	%tmp148 = load i32* %tmp147, align 8		; <i32> [#uses=1]
	%tmp148149 = sitofp i32 %tmp148 to double		; <double> [#uses=1]
	%tmp152153 = sitofp i32 %tmp140 to double		; <double> [#uses=2]
	%tmp154 = fdiv double %tmp148149, %tmp152153		; <double> [#uses=1]
	%tmp154155 = fptrunc double %tmp154 to float		; <float> [#uses=1]
	%tmp159 = add float %tmp154155, 5.000000e-01		; <float> [#uses=1]
	%tmp159160 = fptosi float %tmp159 to i32		; <i32> [#uses=1]
	store i32 %tmp159160, i32* %tmp147, align 8
	%tmp169 = getelementptr %struct.regobj* %tmp137, i32 0, i32 5, i32 1		; <i32*> [#uses=2]
	%tmp170 = load i32* %tmp169, align 8		; <i32> [#uses=1]
	%tmp170171 = sitofp i32 %tmp170 to double		; <double> [#uses=1]
	%tmp176 = fdiv double %tmp170171, %tmp152153		; <double> [#uses=1]
	%tmp176177 = fptrunc double %tmp176 to float		; <float> [#uses=1]
	%tmp181 = add float %tmp176177, 5.000000e-01		; <float> [#uses=1]
	%tmp181182 = fptosi float %tmp181 to i32		; <i32> [#uses=1]
	store i32 %tmp181182, i32* %tmp169, align 8
	br label %cond_next189

cond_next189:		; preds = %cond_true144, %bb121
	%tmp191 = add i32 %i.1220, 1		; <i32> [#uses=2]
	%tmp196 = load i32* getelementptr (%struct.regmngobj* @regmng, i32 0, i32 18, i32 4), align 8		; <i32> [#uses=1]
	%tmp198 = icmp sgt i32 %tmp196, %tmp191		; <i1> [#uses=1]
	store i32 %val42, i32* @cg_caller_call_site_var, align 4
	store i32 %val31, i32* @cg_caller_id_var, align 4
	br i1 %tmp198, label %bb121, label %return

return:		; preds = %cond_next189, %bb192.preheader
	store i32 %val2, i32* @cg_caller_call_site_var, align 4
	store i32 %val, i32* @cg_caller_id_var, align 4
	ret void
}

define internal fastcc void @_ZN9regmngobj7destroyEv() nounwind  {
entry:
	%val = load i32* @cg_caller_id_var, align 4		; <i32> [#uses=2]
	%val2 = load i32* @cg_caller_call_site_var, align 4		; <i32> [#uses=2]
	store i32 11, i32* @cg_caller_id_var, align 4
	call void @CallEdgeProfiler( i32 %val, i32 %val2, i32 11 )
	%tmp4299 = load i32* getelementptr (%struct.regmngobj* @regmng, i32 0, i32 18, i32 4), align 8		; <i32> [#uses=1]
	%tmp44101 = icmp sgt i32 %tmp4299, 0		; <i1> [#uses=1]
	br i1 %tmp44101, label %bb, label %bb46

bb:		; preds = %bb, %entry
	%i.0.reg2mem.0 = phi i32 [ %tmp37, %bb ], [ 0, %entry ]		; <i32> [#uses=2]
	%val3 = load i32* @cg_caller_id_var, align 4		; <i32> [#uses=2]
	%val4 = load i32* @cg_caller_call_site_var, align 4		; <i32> [#uses=2]
	store i32 48, i32* @cg_caller_id_var, align 4
	call void @CallEdgeProfiler( i32 %val3, i32 %val4, i32 48 )
	%tmp10 = load %struct.regobj*** getelementptr (%struct.regmngobj* @regmng, i32 0, i32 18, i32 0), align 8		; <%struct.regobj**> [#uses=1]
	%tmp1112 = sext i32 %i.0.reg2mem.0 to i64		; <i64> [#uses=2]
	%tmp13 = getelementptr %struct.regobj** %tmp10, i64 %tmp1112		; <%struct.regobj**> [#uses=1]
	%tmp17 = load %struct.regobj** %tmp13, align 8		; <%struct.regobj*> [#uses=1]
	%tmp4.i = getelementptr %struct.regobj* %tmp17, i32 0, i32 9, i32 0		; <%struct.regobj***> [#uses=1]
	%tmp5.i = load %struct.regobj*** %tmp4.i, align 8		; <%struct.regobj**> [#uses=1]
	free %struct.regobj** %tmp5.i
	%tmp26 = load %struct.regobj*** getelementptr (%struct.regmngobj* @regmng, i32 0, i32 18, i32 0), align 8		; <%struct.regobj**> [#uses=1]
	%tmp29 = getelementptr %struct.regobj** %tmp26, i64 %tmp1112		; <%struct.regobj**> [#uses=1]
	%tmp33 = load %struct.regobj** %tmp29, align 8		; <%struct.regobj*> [#uses=1]
	%tmp3435 = bitcast %struct.regobj* %tmp33 to i8*		; <i8*> [#uses=1]
	store i32 0, i32* @cg_caller_call_site_var, align 4
	store i32 11, i32* @cg_caller_id_var, align 4
	store i32 0, i32* @cg_caller_call_site_var, align 4
	store i32 48, i32* @cg_caller_id_var, align 4
	tail call void @_ZdlPv( i8* %tmp3435 ) nounwind 
	%tmp37 = add i32 %i.0.reg2mem.0, 1		; <i32> [#uses=2]
	%tmp42 = load i32* getelementptr (%struct.regmngobj* @regmng, i32 0, i32 18, i32 4), align 8		; <i32> [#uses=1]
	%tmp44 = icmp sgt i32 %tmp42, %tmp37		; <i1> [#uses=1]
	store i32 %val4, i32* @cg_caller_call_site_var, align 4
	store i32 %val3, i32* @cg_caller_id_var, align 4
	br i1 %tmp44, label %bb, label %bb46

bb46:		; preds = %bb, %entry
	%tmp55 = load i32** getelementptr (%struct.regmngobj* @regmng, i32 0, i32 18, i32 3, i32 0), align 8		; <i32*> [#uses=1]
	free i32* %tmp55
	%tmp63 = load i32** getelementptr (%struct.regmngobj* @regmng, i32 0, i32 18, i32 2, i32 0), align 8		; <i32*> [#uses=1]
	free i32* %tmp63
	%tmp72 = load i32** getelementptr (%struct.regmngobj* @regmng, i32 0, i32 18, i32 1, i32 0), align 8		; <i32*> [#uses=1]
	free i32* %tmp72
	%tmp76 = load %struct.regobj*** getelementptr (%struct.regmngobj* @regmng, i32 0, i32 18, i32 0), align 8		; <%struct.regobj**> [#uses=1]
	free %struct.regobj** %tmp76
	%tmp80 = load %struct.regobj*** getelementptr (%struct.regmngobj* @regmng, i32 0, i32 6), align 8		; <%struct.regobj**> [#uses=1]
	free %struct.regobj** %tmp80
	store %struct.regobj** null, %struct.regobj*** getelementptr (%struct.regmngobj* @regmng, i32 0, i32 6), align 8
	%tmp86 = load i8** getelementptr (%struct.regmngobj* @regmng, i32 0, i32 7), align 8		; <i8*> [#uses=1]
	free i8* %tmp86
	store i8* null, i8** getelementptr (%struct.regmngobj* @regmng, i32 0, i32 7), align 8
	%tmp91 = load i16** getelementptr (%struct.regmngobj* @regmng, i32 0, i32 0), align 32		; <i16*> [#uses=1]
	free i16* %tmp91
	store i16* null, i16** getelementptr (%struct.regmngobj* @regmng, i32 0, i32 0), align 32
	store i32 %val2, i32* @cg_caller_call_site_var, align 4
	store i32 %val, i32* @cg_caller_id_var, align 4
	ret void
}

declare void @_ZdlPv(i8*) nounwind 

define internal fastcc void @_ZN9regmngobj15redefineregionsEv() nounwind  {
entry:
	%val = load i32* @cg_caller_id_var, align 4		; <i32> [#uses=2]
	%val2 = load i32* @cg_caller_call_site_var, align 4		; <i32> [#uses=2]
	store i32 12, i32* @cg_caller_id_var, align 4
	call void @CallEdgeProfiler( i32 %val, i32 %val2, i32 12 )
	%tmp19242 = malloc [16 x %struct.regboundobj]		; <[16 x %struct.regboundobj]*> [#uses=1]
	%tmp19242.sub = getelementptr [16 x %struct.regboundobj]* %tmp19242, i32 0, i32 0		; <%struct.regboundobj*> [#uses=2]
	%tmp170264 = load i32* getelementptr (%struct.regmngobj* @regmng, i32 0, i32 18, i32 4), align 8		; <i32> [#uses=1]
	%tmp172266 = icmp sgt i32 %tmp170264, 0		; <i1> [#uses=1]
	br i1 %tmp172266, label %bb24, label %bb199.preheader

bb24:		; preds = %bb166, %entry
	%i.0.reg2mem.0 = phi i32 [ %tmp165, %bb166 ], [ 0, %entry ]		; <i32> [#uses=2]
	%rboundarp.2.2.reg2mem.0 = phi i32 [ %rboundarp.2.1, %bb166 ], [ 16, %entry ]		; <i32> [#uses=5]
	%rboundarp.1.1.reg2mem.0 = phi i32 [ %rboundarp.1.0, %bb166 ], [ 0, %entry ]		; <i32> [#uses=3]
	%rboundarp.0.2.reg2mem.0 = phi %struct.regboundobj* [ %rboundarp.0.1, %bb166 ], [ %tmp19242.sub, %entry ]		; <%struct.regboundobj*> [#uses=4]
	%val3 = load i32* @cg_caller_id_var, align 4		; <i32> [#uses=2]
	%val4 = load i32* @cg_caller_call_site_var, align 4		; <i32> [#uses=2]
	store i32 49, i32* @cg_caller_id_var, align 4
	call void @CallEdgeProfiler( i32 %val3, i32 %val4, i32 49 )
	%tmp32 = load %struct.regobj*** getelementptr (%struct.regmngobj* @regmng, i32 0, i32 18, i32 0), align 8		; <%struct.regobj**> [#uses=1]
	%tmp3334 = sext i32 %i.0.reg2mem.0 to i64		; <i64> [#uses=2]
	%tmp35 = getelementptr %struct.regobj** %tmp32, i64 %tmp3334		; <%struct.regobj**> [#uses=1]
	%tmp39 = load %struct.regobj** %tmp35, align 8		; <%struct.regobj*> [#uses=1]
	%tmp40 = getelementptr %struct.regobj* %tmp39, i32 0, i32 2		; <i8*> [#uses=1]
	%tmp41 = load i8* %tmp40, align 8		; <i8> [#uses=1]
	%toBool = icmp eq i8 %tmp41, 0		; <i1> [#uses=1]
	br i1 %toBool, label %bb166, label %cond_true

cond_true:		; preds = %bb24
	%tmp48 = icmp eq i32 %rboundarp.1.1.reg2mem.0, %rboundarp.2.2.reg2mem.0		; <i1> [#uses=1]
	br i1 %tmp48, label %cond_true51, label %cond_next90

cond_true51:		; preds = %cond_true
	%tmp55 = shl i32 %rboundarp.2.2.reg2mem.0, 1		; <i32> [#uses=2]
	%tmp65 = malloc %struct.regboundobj, i32 %tmp55		; <%struct.regboundobj*> [#uses=2]
	%tmpcast = bitcast %struct.regboundobj* %tmp65 to i8*		; <i8*> [#uses=1]
	%tmp7475 = sext i32 %rboundarp.2.2.reg2mem.0 to i64		; <i64> [#uses=1]
	%tmp76 = mul i64 %tmp7475, 112		; <i64> [#uses=1]
	%tmp7881 = bitcast %struct.regboundobj* %rboundarp.0.2.reg2mem.0 to i8*		; <i8*> [#uses=1]
	store i32 0, i32* @cg_caller_call_site_var, align 4
	store i32 12, i32* @cg_caller_id_var, align 4
	store i32 1, i32* @cg_caller_call_site_var, align 4
	store i32 49, i32* @cg_caller_id_var, align 4
	tail call void @llvm.memcpy.i64( i8* %tmpcast, i8* %tmp7881, i64 %tmp76, i32 8 )
	free %struct.regboundobj* %rboundarp.0.2.reg2mem.0
	br label %cond_next90

cond_next90:		; preds = %cond_true51, %cond_true
	%rboundarp.2.0 = phi i32 [ %tmp55, %cond_true51 ], [ %rboundarp.2.2.reg2mem.0, %cond_true ]		; <i32> [#uses=1]
	%rboundarp.0.0 = phi %struct.regboundobj* [ %tmp65, %cond_true51 ], [ %rboundarp.0.2.reg2mem.0, %cond_true ]		; <%struct.regboundobj*> [#uses=3]
	%tmp93 = add i32 %rboundarp.1.1.reg2mem.0, 1		; <i32> [#uses=2]
	%tmp9899 = sext i32 %tmp93 to i64		; <i64> [#uses=1]
	%tmp100.sum = add i64 %tmp9899, -1		; <i64> [#uses=2]
	%tmp101 = getelementptr %struct.regboundobj* %rboundarp.0.0, i64 %tmp100.sum		; <%struct.regboundobj*> [#uses=1]
	%tmp106 = getelementptr %struct.regboundobj* %rboundarp.0.0, i64 %tmp100.sum, i32 16		; <i8*> [#uses=1]
	store i8 1, i8* %tmp106, align 8
	%tmp115 = load %struct.regobj*** getelementptr (%struct.regmngobj* @regmng, i32 0, i32 18, i32 0), align 8		; <%struct.regobj**> [#uses=1]
	%tmp118 = getelementptr %struct.regobj** %tmp115, i64 %tmp3334		; <%struct.regobj**> [#uses=1]
	%tmp122 = load %struct.regobj** %tmp118, align 8		; <%struct.regobj*> [#uses=3]
	%tmp140 = getelementptr %struct.regobj* %tmp122, i32 0, i32 5, i32 1		; <i32*> [#uses=1]
	%tmp141 = load i32* %tmp140, align 8		; <i32> [#uses=1]
	%tmp159 = getelementptr %struct.regobj* %tmp122, i32 0, i32 5, i32 0		; <i32*> [#uses=1]
	%tmp160 = load i32* %tmp159, align 8		; <i32> [#uses=1]
	store i32 1, i32* @cg_caller_call_site_var, align 4
	store i32 12, i32* @cg_caller_id_var, align 4
	store i32 0, i32* @cg_caller_call_site_var, align 4
	store i32 49, i32* @cg_caller_id_var, align 4
	tail call fastcc void @_ZN11regboundobj9firststepEiiP6regobjP9regmngobj( %struct.regboundobj* %tmp101, i32 %tmp160, i32 %tmp141, %struct.regobj* %tmp122 )
	br label %bb166

bb166:		; preds = %cond_next90, %bb24
	%rboundarp.0.1 = phi %struct.regboundobj* [ %rboundarp.0.0, %cond_next90 ], [ %rboundarp.0.2.reg2mem.0, %bb24 ]		; <%struct.regboundobj*> [#uses=2]
	%rboundarp.1.0 = phi i32 [ %tmp93, %cond_next90 ], [ %rboundarp.1.1.reg2mem.0, %bb24 ]		; <i32> [#uses=2]
	%rboundarp.2.1 = phi i32 [ %rboundarp.2.0, %cond_next90 ], [ %rboundarp.2.2.reg2mem.0, %bb24 ]		; <i32> [#uses=1]
	%tmp165 = add i32 %i.0.reg2mem.0, 1		; <i32> [#uses=2]
	%tmp170 = load i32* getelementptr (%struct.regmngobj* @regmng, i32 0, i32 18, i32 4), align 8		; <i32> [#uses=1]
	%tmp172 = icmp sgt i32 %tmp170, %tmp165		; <i1> [#uses=1]
	store i32 %val4, i32* @cg_caller_call_site_var, align 4
	store i32 %val3, i32* @cg_caller_id_var, align 4
	br i1 %tmp172, label %bb24, label %bb199.preheader

bb177:		; preds = %bb199
	%tmp183184 = sext i32 %i.1 to i64		; <i64> [#uses=1]
	%tmp185 = getelementptr %struct.regboundobj* %rboundarp.0.2.reg2mem.1.ph, i64 %tmp183184		; <%struct.regboundobj*> [#uses=1]
	store i32 2, i32* @cg_caller_call_site_var, align 4
	store i32 12, i32* @cg_caller_id_var, align 4
	store i32 0, i32* @cg_caller_call_site_var, align 4
	store i32 50, i32* @cg_caller_id_var, align 4
	%tmp189 = tail call fastcc i8 @_ZN11regboundobj4stepEv( %struct.regboundobj* %tmp185 ) zeroext 		; <i8> [#uses=1]
	%tmp191 = icmp eq i8 %tmp189, 1		; <i1> [#uses=1]
	%fldone.0 = select i1 %tmp191, i8 0, i8 %fldone.1		; <i8> [#uses=1]
	%tmp198 = add i32 %i.1, 1		; <i32> [#uses=1]
	br label %bb199

bb199.preheader:		; preds = %bb166, %entry
	%rboundarp.1.1.reg2mem.1.ph = phi i32 [ 0, %entry ], [ %rboundarp.1.0, %bb166 ]		; <i32> [#uses=3]
	%rboundarp.0.2.reg2mem.1.ph = phi %struct.regboundobj* [ %tmp19242.sub, %entry ], [ %rboundarp.0.1, %bb166 ]		; <%struct.regboundobj*> [#uses=4]
	br label %bb199

bb199:		; preds = %bb206, %bb199.preheader, %bb177
	%i.1 = phi i32 [ 0, %bb199.preheader ], [ %tmp198, %bb177 ], [ 0, %bb206 ]		; <i32> [#uses=3]
	%fldone.1 = phi i8 [ 1, %bb199.preheader ], [ %fldone.0, %bb177 ], [ 1, %bb206 ]		; <i8> [#uses=2]
	%val31 = load i32* @cg_caller_id_var, align 4		; <i32> [#uses=2]
	%val42 = load i32* @cg_caller_call_site_var, align 4		; <i32> [#uses=2]
	store i32 50, i32* @cg_caller_id_var, align 4
	call void @CallEdgeProfiler( i32 %val31, i32 %val42, i32 50 )
	%tmp203 = icmp sgt i32 %rboundarp.1.1.reg2mem.1.ph, %i.1		; <i1> [#uses=1]
	br i1 %tmp203, label %bb177, label %bb206

bb206:		; preds = %bb199
	%tmp209 = icmp eq i8 %fldone.1, 0		; <i1> [#uses=1]
	store i32 %val42, i32* @cg_caller_call_site_var, align 4
	store i32 %val31, i32* @cg_caller_id_var, align 4
	br i1 %tmp209, label %bb199, label %bb227.loopexit

bb213:		; preds = %bb227.loopexit, %bb213
	%i.2267 = phi i32 [ %tmp226, %bb213 ], [ 0, %bb227.loopexit ]		; <i32> [#uses=2]
	%val33 = load i32* @cg_caller_id_var, align 4		; <i32> [#uses=2]
	%val44 = load i32* @cg_caller_call_site_var, align 4		; <i32> [#uses=2]
	store i32 51, i32* @cg_caller_id_var, align 4
	call void @CallEdgeProfiler( i32 %val33, i32 %val44, i32 51 )
	%tmp219220 = sext i32 %i.2267 to i64		; <i64> [#uses=2]
	%tmp4.i = getelementptr %struct.regboundobj* %rboundarp.0.2.reg2mem.1.ph, i64 %tmp219220, i32 0, i32 0		; <%struct.pointt**> [#uses=1]
	%tmp5.i = load %struct.pointt** %tmp4.i, align 8		; <%struct.pointt*> [#uses=1]
	free %struct.pointt* %tmp5.i
	%tmp12.i = getelementptr %struct.regboundobj* %rboundarp.0.2.reg2mem.1.ph, i64 %tmp219220, i32 1, i32 0		; <%struct.pointt**> [#uses=1]
	%tmp13.i = load %struct.pointt** %tmp12.i, align 8		; <%struct.pointt*> [#uses=1]
	free %struct.pointt* %tmp13.i
	%tmp226 = add i32 %i.2267, 1		; <i32> [#uses=2]
	%tmp231 = icmp sgt i32 %rboundarp.1.1.reg2mem.1.ph, %tmp226		; <i1> [#uses=1]
	store i32 %val44, i32* @cg_caller_call_site_var, align 4
	store i32 %val33, i32* @cg_caller_id_var, align 4
	br i1 %tmp231, label %bb213, label %bb234

bb227.loopexit:		; preds = %bb206
	%tmp231268 = icmp sgt i32 %rboundarp.1.1.reg2mem.1.ph, 0		; <i1> [#uses=1]
	br i1 %tmp231268, label %bb213, label %bb234

bb234:		; preds = %bb227.loopexit, %bb213
	free %struct.regboundobj* %rboundarp.0.2.reg2mem.1.ph
	store i32 %val2, i32* @cg_caller_call_site_var, align 4
	store i32 %val, i32* @cg_caller_id_var, align 4
	ret void
}

define internal fastcc void @_ZN9regmngobj13deleteregionsEv() nounwind  {
entry:
	%val = load i32* @cg_caller_id_var, align 4		; <i32> [#uses=2]
	%val2 = load i32* @cg_caller_call_site_var, align 4		; <i32> [#uses=2]
	store i32 13, i32* @cg_caller_id_var, align 4
	call void @CallEdgeProfiler( i32 %val, i32 %val2, i32 13 )
	%tmp18336 = malloc [16 x %struct.regobj*]		; <[16 x %struct.regobj*]*> [#uses=1]
	%tmp18336.sub = getelementptr [16 x %struct.regobj*]* %tmp18336, i32 0, i32 0		; <%struct.regobj**> [#uses=2]
	%tmp126359 = load i32* getelementptr (%struct.regmngobj* @regmng, i32 0, i32 18, i32 4), align 8		; <i32> [#uses=1]
	%tmp128361 = icmp sgt i32 %tmp126359, 0		; <i1> [#uses=1]
	br i1 %tmp128361, label %bb23, label %bb318.preheader

bb23:		; preds = %bb122, %entry
	%i.0.reg2mem.0 = phi i32 [ %tmp121, %bb122 ], [ 0, %entry ]		; <i32> [#uses=2]
	%deletedregions.2.2.reg2mem.0 = phi i32 [ %deletedregions.2.1, %bb122 ], [ 16, %entry ]		; <i32> [#uses=5]
	%deletedregions.1.1.reg2mem.0 = phi i32 [ %deletedregions.1.0, %bb122 ], [ 0, %entry ]		; <i32> [#uses=4]
	%deletedregions.0.2.reg2mem.0 = phi %struct.regobj** [ %deletedregions.0.1, %bb122 ], [ %tmp18336.sub, %entry ]		; <%struct.regobj**> [#uses=4]
	%val3 = load i32* @cg_caller_id_var, align 4		; <i32> [#uses=2]
	%val4 = load i32* @cg_caller_call_site_var, align 4		; <i32> [#uses=2]
	store i32 52, i32* @cg_caller_id_var, align 4
	call void @CallEdgeProfiler( i32 %val3, i32 %val4, i32 52 )
	%tmp31 = load %struct.regobj*** getelementptr (%struct.regmngobj* @regmng, i32 0, i32 18, i32 0), align 8		; <%struct.regobj**> [#uses=1]
	%tmp3233 = sext i32 %i.0.reg2mem.0 to i64		; <i64> [#uses=1]
	%tmp34 = getelementptr %struct.regobj** %tmp31, i64 %tmp3233		; <%struct.regobj**> [#uses=2]
	%tmp38 = load %struct.regobj** %tmp34, align 8		; <%struct.regobj*> [#uses=1]
	%tmp39 = getelementptr %struct.regobj* %tmp38, i32 0, i32 1		; <i8*> [#uses=1]
	%tmp40 = load i8* %tmp39, align 8		; <i8> [#uses=1]
	%tmp42 = icmp eq i8 %tmp40, 0		; <i1> [#uses=1]
	br i1 %tmp42, label %cond_true, label %bb122

cond_true:		; preds = %bb23
	%tmp64 = icmp eq i32 %deletedregions.1.1.reg2mem.0, %deletedregions.2.2.reg2mem.0		; <i1> [#uses=1]
	br i1 %tmp64, label %cond_true67, label %cond_next106

cond_true67:		; preds = %cond_true
	%tmp71 = shl i32 %deletedregions.2.2.reg2mem.0, 1		; <i32> [#uses=2]
	%tmp81 = malloc %struct.regobj*, i32 %tmp71		; <%struct.regobj**> [#uses=2]
	%tmpcast = bitcast %struct.regobj** %tmp81 to i8*		; <i8*> [#uses=1]
	%tmp9091 = sext i32 %deletedregions.2.2.reg2mem.0 to i64		; <i64> [#uses=1]
	%tmp92 = shl i64 %tmp9091, 3		; <i64> [#uses=1]
	%tmp9497 = bitcast %struct.regobj** %deletedregions.0.2.reg2mem.0 to i8*		; <i8*> [#uses=1]
	store i32 0, i32* @cg_caller_call_site_var, align 4
	store i32 13, i32* @cg_caller_id_var, align 4
	store i32 0, i32* @cg_caller_call_site_var, align 4
	store i32 52, i32* @cg_caller_id_var, align 4
	tail call void @llvm.memcpy.i64( i8* %tmpcast, i8* %tmp9497, i64 %tmp92, i32 8 )
	free %struct.regobj** %deletedregions.0.2.reg2mem.0
	br label %cond_next106

cond_next106:		; preds = %cond_true67, %cond_true
	%deletedregions.2.0 = phi i32 [ %tmp71, %cond_true67 ], [ %deletedregions.2.2.reg2mem.0, %cond_true ]		; <i32> [#uses=1]
	%deletedregions.0.0 = phi %struct.regobj** [ %tmp81, %cond_true67 ], [ %deletedregions.0.2.reg2mem.0, %cond_true ]		; <%struct.regobj**> [#uses=2]
	%tmp112 = load %struct.regobj** %tmp34, align 8		; <%struct.regobj*> [#uses=1]
	%tmp110113 = sext i32 %deletedregions.1.1.reg2mem.0 to i64		; <i64> [#uses=1]
	%tmp114 = getelementptr %struct.regobj** %deletedregions.0.0, i64 %tmp110113		; <%struct.regobj**> [#uses=1]
	store %struct.regobj* %tmp112, %struct.regobj** %tmp114, align 8
	%tmp117 = add i32 %deletedregions.1.1.reg2mem.0, 1		; <i32> [#uses=1]
	br label %bb122

bb122:		; preds = %cond_next106, %bb23
	%deletedregions.0.1 = phi %struct.regobj** [ %deletedregions.0.0, %cond_next106 ], [ %deletedregions.0.2.reg2mem.0, %bb23 ]		; <%struct.regobj**> [#uses=2]
	%deletedregions.1.0 = phi i32 [ %tmp117, %cond_next106 ], [ %deletedregions.1.1.reg2mem.0, %bb23 ]		; <i32> [#uses=2]
	%deletedregions.2.1 = phi i32 [ %deletedregions.2.0, %cond_next106 ], [ %deletedregions.2.2.reg2mem.0, %bb23 ]		; <i32> [#uses=1]
	%tmp121 = add i32 %i.0.reg2mem.0, 1		; <i32> [#uses=2]
	%tmp126 = load i32* getelementptr (%struct.regmngobj* @regmng, i32 0, i32 18, i32 4), align 8		; <i32> [#uses=1]
	%tmp128 = icmp sgt i32 %tmp126, %tmp121		; <i1> [#uses=1]
	store i32 %val4, i32* @cg_caller_call_site_var, align 4
	store i32 %val3, i32* @cg_caller_id_var, align 4
	br i1 %tmp128, label %bb23, label %bb318.preheader

bb132:		; preds = %bb318.preheader, %cond_next268
	%i.1362 = phi i32 [ %tmp317, %cond_next268 ], [ 0, %bb318.preheader ]		; <i32> [#uses=2]
	%val31 = load i32* @cg_caller_id_var, align 4		; <i32> [#uses=2]
	%val42 = load i32* @cg_caller_call_site_var, align 4		; <i32> [#uses=2]
	store i32 53, i32* @cg_caller_id_var, align 4
	call void @CallEdgeProfiler( i32 %val31, i32 %val42, i32 53 )
	%tmp138139 = sext i32 %i.1362 to i64		; <i64> [#uses=1]
	%tmp140 = getelementptr %struct.regobj** %deletedregions.0.2.reg2mem.1.ph, i64 %tmp138139		; <%struct.regobj**> [#uses=3]
	%tmp144 = load %struct.regobj** %tmp140, align 8		; <%struct.regobj*> [#uses=1]
	%tmp145 = getelementptr %struct.regobj* %tmp144, i32 0, i32 0		; <i32*> [#uses=1]
	%tmp146 = load i32* %tmp145, align 8		; <i32> [#uses=2]
	%tmp153 = load i32** getelementptr (%struct.regmngobj* @regmng, i32 0, i32 18, i32 2, i32 0), align 8		; <i32*> [#uses=1]
	%tmp154155 = sext i32 %tmp146 to i64		; <i64> [#uses=1]
	%tmp156 = getelementptr i32* %tmp153, i64 %tmp154155		; <i32*> [#uses=1]
	%tmp157 = load i32* %tmp156, align 4		; <i32> [#uses=3]
	%tmp160 = load i32* getelementptr (%struct.regmngobj* @regmng, i32 0, i32 18, i32 4), align 8		; <i32> [#uses=1]
	%tmp161 = add i32 %tmp160, -1		; <i32> [#uses=2]
	%tmp163 = icmp eq i32 %tmp161, %tmp157		; <i1> [#uses=1]
	br i1 %tmp163, label %cond_next219, label %cond_true166

cond_true166:		; preds = %bb132
	%tmp169 = load %struct.regobj*** getelementptr (%struct.regmngobj* @regmng, i32 0, i32 18, i32 0), align 8		; <%struct.regobj**> [#uses=2]
	%tmp176177 = sext i32 %tmp161 to i64		; <i64> [#uses=1]
	%tmp178 = getelementptr %struct.regobj** %tmp169, i64 %tmp176177		; <%struct.regobj**> [#uses=1]
	%tmp179 = load %struct.regobj** %tmp178, align 8		; <%struct.regobj*> [#uses=1]
	%tmp180181 = sext i32 %tmp157 to i64		; <i64> [#uses=2]
	%tmp182 = getelementptr %struct.regobj** %tmp169, i64 %tmp180181		; <%struct.regobj**> [#uses=1]
	store %struct.regobj* %tmp179, %struct.regobj** %tmp182, align 8
	%tmp186 = load i32** getelementptr (%struct.regmngobj* @regmng, i32 0, i32 18, i32 2, i32 0), align 8		; <i32*> [#uses=1]
	%tmp190 = load i32** getelementptr (%struct.regmngobj* @regmng, i32 0, i32 18, i32 3, i32 0), align 8		; <i32*> [#uses=1]
	%tmp193 = load i32* getelementptr (%struct.regmngobj* @regmng, i32 0, i32 18, i32 4), align 8		; <i32> [#uses=1]
	%tmp194 = add i32 %tmp193, -1		; <i32> [#uses=1]
	%tmp194195 = sext i32 %tmp194 to i64		; <i64> [#uses=1]
	%tmp196 = getelementptr i32* %tmp190, i64 %tmp194195		; <i32*> [#uses=1]
	%tmp197 = load i32* %tmp196, align 4		; <i32> [#uses=1]
	%tmp197198 = sext i32 %tmp197 to i64		; <i64> [#uses=1]
	%tmp199 = getelementptr i32* %tmp186, i64 %tmp197198		; <i32*> [#uses=1]
	store i32 %tmp157, i32* %tmp199, align 4
	%tmp204 = load i32** getelementptr (%struct.regmngobj* @regmng, i32 0, i32 18, i32 3, i32 0), align 8		; <i32*> [#uses=2]
	%tmp211 = load i32* getelementptr (%struct.regmngobj* @regmng, i32 0, i32 18, i32 4), align 8		; <i32> [#uses=1]
	%tmp212 = add i32 %tmp211, -1		; <i32> [#uses=1]
	%tmp212213 = sext i32 %tmp212 to i64		; <i64> [#uses=1]
	%tmp214 = getelementptr i32* %tmp204, i64 %tmp212213		; <i32*> [#uses=1]
	%tmp215 = load i32* %tmp214, align 4		; <i32> [#uses=1]
	%tmp218 = getelementptr i32* %tmp204, i64 %tmp180181		; <i32*> [#uses=1]
	store i32 %tmp215, i32* %tmp218, align 4
	br label %cond_next219

cond_next219:		; preds = %cond_true166, %bb132
	%tmp226 = load i32* getelementptr (%struct.regmngobj* @regmng, i32 0, i32 18, i32 1, i32 1), align 8		; <i32> [#uses=1]
	%tmp229 = load i32* getelementptr (%struct.regmngobj* @regmng, i32 0, i32 18, i32 1, i32 2), align 8		; <i32> [#uses=3]
	%tmp230 = icmp eq i32 %tmp226, %tmp229		; <i1> [#uses=1]
	br i1 %tmp230, label %cond_true233, label %cond_next268

cond_true233:		; preds = %cond_next219
	%tmp241 = shl i32 %tmp229, 1		; <i32> [#uses=2]
	%tmp245 = malloc i32, i32 %tmp241		; <i32*> [#uses=2]
	%tmpcast338 = bitcast i32* %tmp245 to i8*		; <i8*> [#uses=1]
	%tmp249250 = sext i32 %tmp229 to i64		; <i64> [#uses=1]
	%tmp251 = shl i64 %tmp249250, 2		; <i64> [#uses=1]
	%tmp254 = load i32** getelementptr (%struct.regmngobj* @regmng, i32 0, i32 18, i32 1, i32 0), align 8		; <i32*> [#uses=1]
	%tmp254257 = bitcast i32* %tmp254 to i8*		; <i8*> [#uses=1]
	store i32 1, i32* @cg_caller_call_site_var, align 4
	store i32 13, i32* @cg_caller_id_var, align 4
	store i32 1, i32* @cg_caller_call_site_var, align 4
	store i32 53, i32* @cg_caller_id_var, align 4
	tail call void @llvm.memcpy.i64( i8* %tmpcast338, i8* %tmp254257, i64 %tmp251, i32 4 )
	%tmp260 = load i32** getelementptr (%struct.regmngobj* @regmng, i32 0, i32 18, i32 1, i32 0), align 8		; <i32*> [#uses=1]
	free i32* %tmp260
	store i32* %tmp245, i32** getelementptr (%struct.regmngobj* @regmng, i32 0, i32 18, i32 1, i32 0), align 8
	store i32 %tmp241, i32* getelementptr (%struct.regmngobj* @regmng, i32 0, i32 18, i32 1, i32 2), align 8
	br label %cond_next268

cond_next268:		; preds = %cond_true233, %cond_next219
	%tmp271 = load i32** getelementptr (%struct.regmngobj* @regmng, i32 0, i32 18, i32 1, i32 0), align 8		; <i32*> [#uses=1]
	%tmp274 = load i32* getelementptr (%struct.regmngobj* @regmng, i32 0, i32 18, i32 1, i32 1), align 8		; <i32> [#uses=1]
	%tmp274275 = sext i32 %tmp274 to i64		; <i64> [#uses=1]
	%tmp276 = getelementptr i32* %tmp271, i64 %tmp274275		; <i32*> [#uses=1]
	store i32 %tmp146, i32* %tmp276, align 4
	%tmp280 = load i32* getelementptr (%struct.regmngobj* @regmng, i32 0, i32 18, i32 1, i32 1), align 8		; <i32> [#uses=1]
	%tmp281 = add i32 %tmp280, 1		; <i32> [#uses=1]
	store i32 %tmp281, i32* getelementptr (%struct.regmngobj* @regmng, i32 0, i32 18, i32 1, i32 1), align 8
	%tmp286 = load i32* getelementptr (%struct.regmngobj* @regmng, i32 0, i32 18, i32 4), align 8		; <i32> [#uses=1]
	%tmp287 = add i32 %tmp286, -1		; <i32> [#uses=1]
	store i32 %tmp287, i32* getelementptr (%struct.regmngobj* @regmng, i32 0, i32 18, i32 4), align 8
	%tmp301 = load %struct.regobj** %tmp140, align 8		; <%struct.regobj*> [#uses=1]
	%tmp4.i = getelementptr %struct.regobj* %tmp301, i32 0, i32 9, i32 0		; <%struct.regobj***> [#uses=1]
	%tmp5.i = load %struct.regobj*** %tmp4.i, align 8		; <%struct.regobj**> [#uses=1]
	free %struct.regobj** %tmp5.i
	%tmp313 = load %struct.regobj** %tmp140, align 8		; <%struct.regobj*> [#uses=1]
	%tmp314315 = bitcast %struct.regobj* %tmp313 to i8*		; <i8*> [#uses=1]
	store i32 2, i32* @cg_caller_call_site_var, align 4
	store i32 13, i32* @cg_caller_id_var, align 4
	store i32 0, i32* @cg_caller_call_site_var, align 4
	store i32 53, i32* @cg_caller_id_var, align 4
	tail call void @_ZdlPv( i8* %tmp314315 ) nounwind 
	%tmp317 = add i32 %i.1362, 1		; <i32> [#uses=2]
	%tmp322 = icmp sgt i32 %deletedregions.1.1.reg2mem.1.ph, %tmp317		; <i1> [#uses=1]
	store i32 %val42, i32* @cg_caller_call_site_var, align 4
	store i32 %val31, i32* @cg_caller_id_var, align 4
	br i1 %tmp322, label %bb132, label %bb325

bb318.preheader:		; preds = %bb122, %entry
	%deletedregions.1.1.reg2mem.1.ph = phi i32 [ 0, %entry ], [ %deletedregions.1.0, %bb122 ]		; <i32> [#uses=2]
	%deletedregions.0.2.reg2mem.1.ph = phi %struct.regobj** [ %tmp18336.sub, %entry ], [ %deletedregions.0.1, %bb122 ]		; <%struct.regobj**> [#uses=2]
	%tmp322363 = icmp sgt i32 %deletedregions.1.1.reg2mem.1.ph, 0		; <i1> [#uses=1]
	br i1 %tmp322363, label %bb132, label %bb325

bb325:		; preds = %bb318.preheader, %cond_next268
	free %struct.regobj** %deletedregions.0.2.reg2mem.1.ph
	store i32 %val2, i32* @cg_caller_call_site_var, align 4
	store i32 %val, i32* @cg_caller_id_var, align 4
	ret void
}

define internal fastcc void @_ZN9regmngobj18enlargeneighborsesEi(i32 %critical) nounwind  {
entry:
	%val = load i32* @cg_caller_id_var, align 4		; <i32> [#uses=2]
	%val2 = load i32* @cg_caller_call_site_var, align 4		; <i32> [#uses=2]
	store i32 14, i32* @cg_caller_id_var, align 4
	call void @CallEdgeProfiler( i32 %val, i32 %val2, i32 14 )
	%tmp33324 = load i32* getelementptr (%struct.regmngobj* @regmng, i32 0, i32 18, i32 4), align 8		; <i32> [#uses=2]
	%tmp35326 = icmp sgt i32 %tmp33324, 0		; <i1> [#uses=1]
	br i1 %tmp35326, label %bb, label %bb142

bb:		; preds = %bb, %entry
	%i.0.reg2mem.0 = phi i32 [ %tmp28, %bb ], [ 0, %entry ]		; <i32> [#uses=2]
	%val3 = load i32* @cg_caller_id_var, align 4		; <i32> [#uses=2]
	%val4 = load i32* @cg_caller_call_site_var, align 4		; <i32> [#uses=2]
	store i32 54, i32* @cg_caller_id_var, align 4
	call void @CallEdgeProfiler( i32 %val3, i32 %val4, i32 54 )
	%tmp18 = load %struct.regobj*** getelementptr (%struct.regmngobj* @regmng, i32 0, i32 18, i32 0), align 8		; <%struct.regobj**> [#uses=1]
	%tmp1920 = sext i32 %i.0.reg2mem.0 to i64		; <i64> [#uses=1]
	%tmp21 = getelementptr %struct.regobj** %tmp18, i64 %tmp1920		; <%struct.regobj**> [#uses=1]
	%tmp25 = load %struct.regobj** %tmp21, align 8		; <%struct.regobj*> [#uses=1]
	%tmp26 = getelementptr %struct.regobj* %tmp25, i32 0, i32 2		; <i8*> [#uses=1]
	store i8 0, i8* %tmp26, align 8
	%tmp28 = add i32 %i.0.reg2mem.0, 1		; <i32> [#uses=2]
	%tmp33 = load i32* getelementptr (%struct.regmngobj* @regmng, i32 0, i32 18, i32 4), align 8		; <i32> [#uses=2]
	%tmp35 = icmp sgt i32 %tmp33, %tmp28		; <i1> [#uses=1]
	store i32 %val4, i32* @cg_caller_call_site_var, align 4
	store i32 %val3, i32* @cg_caller_id_var, align 4
	br i1 %tmp35, label %bb, label %bb142

bb38:		; preds = %bb142, %cond_next
	%i.1.reg2mem.0 = phi i32 [ %tmp141, %cond_next ], [ 0, %bb142 ]		; <i32> [#uses=2]
	%val31 = load i32* @cg_caller_id_var, align 4		; <i32> [#uses=2]
	%val42 = load i32* @cg_caller_call_site_var, align 4		; <i32> [#uses=2]
	store i32 55, i32* @cg_caller_id_var, align 4
	call void @CallEdgeProfiler( i32 %val31, i32 %val42, i32 55 )
	%tmp47 = load %struct.regobj*** getelementptr (%struct.regmngobj* @regmng, i32 0, i32 18, i32 0), align 8		; <%struct.regobj**> [#uses=1]
	%tmp4849 = sext i32 %i.1.reg2mem.0 to i64		; <i64> [#uses=4]
	%tmp50 = getelementptr %struct.regobj** %tmp47, i64 %tmp4849		; <%struct.regobj**> [#uses=1]
	%tmp54 = load %struct.regobj** %tmp50, align 8		; <%struct.regobj*> [#uses=2]
	%tmp55 = getelementptr %struct.regobj* %tmp54, i32 0, i32 4		; <i32*> [#uses=1]
	%tmp56 = load i32* %tmp55, align 8		; <i32> [#uses=1]
	%tmp58 = icmp slt i32 %tmp56, %critical		; <i1> [#uses=1]
	br i1 %tmp58, label %cond_true, label %cond_next

cond_true:		; preds = %bb38
	%tmp78 = getelementptr %struct.regobj* %tmp54, i32 0, i32 1		; <i8*> [#uses=1]
	store i8 0, i8* %tmp78, align 8
	%tmp123355 = load %struct.regobj*** getelementptr (%struct.regmngobj* @regmng, i32 0, i32 18, i32 0), align 8		; <%struct.regobj**> [#uses=2]
	%tmp126357 = getelementptr %struct.regobj** %tmp123355, i64 %tmp4849		; <%struct.regobj**> [#uses=1]
	%tmp130358 = load %struct.regobj** %tmp126357, align 8		; <%struct.regobj*> [#uses=1]
	%tmp132359 = getelementptr %struct.regobj* %tmp130358, i32 0, i32 9, i32 1		; <i32*> [#uses=1]
	%tmp133360 = load i32* %tmp132359, align 8		; <i32> [#uses=1]
	%tmp135361 = icmp sgt i32 %tmp133360, 0		; <i1> [#uses=1]
	br i1 %tmp135361, label %bb79, label %cond_next

bb79:		; preds = %bb79, %cond_true
	%tmp88.rle = phi %struct.regobj** [ %tmp123, %bb79 ], [ %tmp123355, %cond_true ]		; <%struct.regobj**> [#uses=1]
	%i2.0353 = phi i32 [ %tmp113, %bb79 ], [ 0, %cond_true ]		; <i32> [#uses=2]
	%val33 = load i32* @cg_caller_id_var, align 4		; <i32> [#uses=2]
	%val44 = load i32* @cg_caller_call_site_var, align 4		; <i32> [#uses=2]
	store i32 56, i32* @cg_caller_id_var, align 4
	call void @CallEdgeProfiler( i32 %val33, i32 %val44, i32 56 )
	%tmp91 = getelementptr %struct.regobj** %tmp88.rle, i64 %tmp4849		; <%struct.regobj**> [#uses=1]
	%tmp95 = load %struct.regobj** %tmp91, align 8		; <%struct.regobj*> [#uses=1]
	%tmp102 = getelementptr %struct.regobj* %tmp95, i32 0, i32 9, i32 0		; <%struct.regobj***> [#uses=1]
	%tmp103 = load %struct.regobj*** %tmp102, align 8		; <%struct.regobj**> [#uses=1]
	%tmp104105 = sext i32 %i2.0353 to i64		; <i64> [#uses=1]
	%tmp106 = getelementptr %struct.regobj** %tmp103, i64 %tmp104105		; <%struct.regobj**> [#uses=1]
	%tmp110 = load %struct.regobj** %tmp106, align 8		; <%struct.regobj*> [#uses=1]
	%tmp111 = getelementptr %struct.regobj* %tmp110, i32 0, i32 2		; <i8*> [#uses=1]
	store i8 1, i8* %tmp111, align 8
	%tmp113 = add i32 %i2.0353, 1		; <i32> [#uses=2]
	%tmp123 = load %struct.regobj*** getelementptr (%struct.regmngobj* @regmng, i32 0, i32 18, i32 0), align 8		; <%struct.regobj**> [#uses=2]
	%tmp126 = getelementptr %struct.regobj** %tmp123, i64 %tmp4849		; <%struct.regobj**> [#uses=1]
	%tmp130 = load %struct.regobj** %tmp126, align 8		; <%struct.regobj*> [#uses=1]
	%tmp132 = getelementptr %struct.regobj* %tmp130, i32 0, i32 9, i32 1		; <i32*> [#uses=1]
	%tmp133 = load i32* %tmp132, align 8		; <i32> [#uses=1]
	%tmp135 = icmp sgt i32 %tmp133, %tmp113		; <i1> [#uses=1]
	store i32 %val44, i32* @cg_caller_call_site_var, align 4
	store i32 %val33, i32* @cg_caller_id_var, align 4
	br i1 %tmp135, label %bb79, label %cond_next

cond_next:		; preds = %bb79, %cond_true, %bb38
	%tmp141 = add i32 %i.1.reg2mem.0, 1		; <i32> [#uses=2]
	%tmp146333 = load i32* getelementptr (%struct.regmngobj* @regmng, i32 0, i32 18, i32 4), align 8		; <i32> [#uses=2]
	%tmp148335 = icmp sgt i32 %tmp146333, %tmp141		; <i1> [#uses=1]
	store i32 %val42, i32* @cg_caller_call_site_var, align 4
	store i32 %val31, i32* @cg_caller_id_var, align 4
	br i1 %tmp148335, label %bb38, label %bb219

bb142:		; preds = %bb, %entry
	%tmp146.rle = phi i32 [ %tmp33324, %entry ], [ %tmp33, %bb ]		; <i32> [#uses=2]
	%tmp148 = icmp sgt i32 %tmp146.rle, 0		; <i1> [#uses=1]
	br i1 %tmp148, label %bb38, label %bb219

bb152:		; preds = %bb219, %cond_next216
	%i.2.reg2mem.0 = phi i32 [ %tmp218, %cond_next216 ], [ 0, %bb219 ]		; <i32> [#uses=2]
	%val35 = load i32* @cg_caller_id_var, align 4		; <i32> [#uses=2]
	%val46 = load i32* @cg_caller_call_site_var, align 4		; <i32> [#uses=2]
	store i32 57, i32* @cg_caller_id_var, align 4
	call void @CallEdgeProfiler( i32 %val35, i32 %val46, i32 57 )
	%tmp161 = load %struct.regobj*** getelementptr (%struct.regmngobj* @regmng, i32 0, i32 18, i32 0), align 8		; <%struct.regobj**> [#uses=1]
	%tmp162163 = sext i32 %i.2.reg2mem.0 to i64		; <i64> [#uses=1]
	%tmp164 = getelementptr %struct.regobj** %tmp161, i64 %tmp162163		; <%struct.regobj**> [#uses=1]
	%tmp168 = load %struct.regobj** %tmp164, align 8		; <%struct.regobj*> [#uses=2]
	%tmp169 = getelementptr %struct.regobj* %tmp168, i32 0, i32 2		; <i8*> [#uses=2]
	%tmp170 = load i8* %tmp169, align 8		; <i8> [#uses=1]
	%toBool172 = icmp eq i8 %tmp170, 0		; <i1> [#uses=1]
	br i1 %toBool172, label %cond_next216, label %cond_true173

cond_true173:		; preds = %bb152
	%tmp190 = getelementptr %struct.regobj* %tmp168, i32 0, i32 1		; <i8*> [#uses=1]
	%tmp191 = load i8* %tmp190, align 8		; <i8> [#uses=1]
	%tmp193 = icmp eq i8 %tmp191, 0		; <i1> [#uses=1]
	br i1 %tmp193, label %cond_true197, label %cond_next216

cond_true197:		; preds = %cond_true173
	store i8 0, i8* %tmp169, align 8
	br label %cond_next216

cond_next216:		; preds = %cond_true197, %cond_true173, %bb152
	%tmp218 = add i32 %i.2.reg2mem.0, 1		; <i32> [#uses=2]
	%tmp223341 = load i32* getelementptr (%struct.regmngobj* @regmng, i32 0, i32 18, i32 4), align 8		; <i32> [#uses=1]
	%tmp225343 = icmp sgt i32 %tmp223341, %tmp218		; <i1> [#uses=1]
	store i32 %val46, i32* @cg_caller_call_site_var, align 4
	store i32 %val35, i32* @cg_caller_id_var, align 4
	br i1 %tmp225343, label %bb152, label %bb310.preheader

bb219:		; preds = %bb142, %cond_next
	%tmp223.rle = phi i32 [ %tmp146.rle, %bb142 ], [ %tmp146333, %cond_next ]		; <i32> [#uses=1]
	%tmp225 = icmp sgt i32 %tmp223.rle, 0		; <i1> [#uses=1]
	br i1 %tmp225, label %bb152, label %bb310.preheader

bb230:		; preds = %bb299.preheader, %cond_next296
	%x.0344 = phi i32 [ %tmp298, %cond_next296 ], [ 0, %bb299.preheader ]		; <i32> [#uses=2]
	%val39 = load i32* @cg_caller_id_var, align 4		; <i32> [#uses=2]
	%val410 = load i32* @cg_caller_call_site_var, align 4		; <i32> [#uses=2]
	store i32 59, i32* @cg_caller_id_var, align 4
	call void @CallEdgeProfiler( i32 %val39, i32 %val410, i32 59 )
	%tmp240 = load %struct.regobj*** getelementptr (%struct.regmngobj* @regmng, i32 0, i32 6), align 8		; <%struct.regobj**> [#uses=1]
	%tmp243 = load i32* getelementptr (%struct.regmngobj* @regmng, i32 0, i32 16), align 8		; <i32> [#uses=1]
	%tmp245 = mul i32 %tmp243, %y.0348		; <i32> [#uses=1]
	%tmp247 = add i32 %tmp245, %x.0344		; <i32> [#uses=1]
	%tmp247248 = sext i32 %tmp247 to i64		; <i64> [#uses=1]
	%tmp249 = getelementptr %struct.regobj** %tmp240, i64 %tmp247248		; <%struct.regobj**> [#uses=2]
	%tmp253 = load %struct.regobj** %tmp249, align 8		; <%struct.regobj*> [#uses=3]
	%tmp255 = icmp eq %struct.regobj* %tmp253, null		; <i1> [#uses=1]
	br i1 %tmp255, label %cond_next296, label %cond_true258

cond_true258:		; preds = %bb230
	%tmp260 = getelementptr %struct.regobj* %tmp253, i32 0, i32 2		; <i8*> [#uses=1]
	%tmp261 = load i8* %tmp260, align 8		; <i8> [#uses=1]
	%toBool262 = icmp eq i8 %tmp261, 0		; <i1> [#uses=1]
	br i1 %toBool262, label %cond_next264, label %bb272

cond_next264:		; preds = %cond_true258
	%tmp266 = getelementptr %struct.regobj* %tmp253, i32 0, i32 1		; <i8*> [#uses=1]
	%tmp267 = load i8* %tmp266, align 8		; <i8> [#uses=1]
	%tmp269 = icmp eq i8 %tmp267, 0		; <i1> [#uses=1]
	br i1 %tmp269, label %bb272, label %cond_next296

bb272:		; preds = %cond_next264, %cond_true258
	store %struct.regobj* null, %struct.regobj** %tmp249, align 8
	br label %cond_next296

cond_next296:		; preds = %bb272, %cond_next264, %bb230
	%tmp298 = add i32 %x.0344, 1		; <i32> [#uses=2]
	%tmp302 = load i32* getelementptr (%struct.regmngobj* @regmng, i32 0, i32 12), align 8		; <i32> [#uses=1]
	%tmp304 = icmp slt i32 %tmp302, %tmp298		; <i1> [#uses=1]
	store i32 %val410, i32* @cg_caller_call_site_var, align 4
	store i32 %val39, i32* @cg_caller_id_var, align 4
	br i1 %tmp304, label %bb307, label %bb230

bb307:		; preds = %bb299.preheader, %cond_next296
	%tmp309 = add i32 %y.0348, 1		; <i32> [#uses=2]
	%tmp313 = load i32* getelementptr (%struct.regmngobj* @regmng, i32 0, i32 13), align 8		; <i32> [#uses=1]
	%tmp315 = icmp slt i32 %tmp313, %tmp309		; <i1> [#uses=1]
	store i32 %val48, i32* @cg_caller_call_site_var, align 4
	store i32 %val37, i32* @cg_caller_id_var, align 4
	br i1 %tmp315, label %bb318, label %bb299.preheader

bb310.preheader:		; preds = %bb219, %cond_next216
	%tmp313350 = load i32* getelementptr (%struct.regmngobj* @regmng, i32 0, i32 13), align 8		; <i32> [#uses=1]
	%tmp315351 = icmp slt i32 %tmp313350, 0		; <i1> [#uses=1]
	br i1 %tmp315351, label %bb318, label %bb299.preheader

bb299.preheader:		; preds = %bb310.preheader, %bb307
	%y.0348 = phi i32 [ %tmp309, %bb307 ], [ 0, %bb310.preheader ]		; <i32> [#uses=2]
	%val37 = load i32* @cg_caller_id_var, align 4		; <i32> [#uses=2]
	%val48 = load i32* @cg_caller_call_site_var, align 4		; <i32> [#uses=2]
	store i32 58, i32* @cg_caller_id_var, align 4
	call void @CallEdgeProfiler( i32 %val37, i32 %val48, i32 58 )
	%tmp302346 = load i32* getelementptr (%struct.regmngobj* @regmng, i32 0, i32 12), align 8		; <i32> [#uses=1]
	%tmp304347 = icmp slt i32 %tmp302346, 0		; <i1> [#uses=1]
	br i1 %tmp304347, label %bb307, label %bb230

bb318:		; preds = %bb310.preheader, %bb307
	store i32 0, i32* @cg_caller_call_site_var, align 4
	store i32 14, i32* @cg_caller_id_var, align 4
	tail call fastcc void @_ZN9regmngobj13deleteregionsEv( )
	store i32 1, i32* @cg_caller_call_site_var, align 4
	store i32 14, i32* @cg_caller_id_var, align 4
	tail call fastcc void @_ZN9regmngobj15redefineregionsEv( )
	store i32 %val2, i32* @cg_caller_call_site_var, align 4
	store i32 %val, i32* @cg_caller_id_var, align 4
	ret void
}

define internal fastcc void @_ZN9regmngobj19defineneighborhood1Ev() nounwind  {
entry:
	%val = load i32* @cg_caller_id_var, align 4		; <i32> [#uses=2]
	%val2 = load i32* @cg_caller_call_site_var, align 4		; <i32> [#uses=2]
	store i32 15, i32* @cg_caller_id_var, align 4
	call void @CallEdgeProfiler( i32 %val, i32 %val2, i32 15 )
	%tmp28389 = load i32* getelementptr (%struct.regmngobj* @regmng, i32 0, i32 18, i32 4), align 8		; <i32> [#uses=2]
	%tmp30391 = icmp sgt i32 %tmp28389, 0		; <i1> [#uses=1]
	br i1 %tmp30391, label %bb, label %bb56

bb:		; preds = %bb, %entry
	%i.0.reg2mem.0 = phi i32 [ %tmp23, %bb ], [ 0, %entry ]		; <i32> [#uses=3]
	%val3 = load i32* @cg_caller_id_var, align 4		; <i32> [#uses=2]
	%val4 = load i32* @cg_caller_call_site_var, align 4		; <i32> [#uses=2]
	store i32 60, i32* @cg_caller_id_var, align 4
	call void @CallEdgeProfiler( i32 %val3, i32 %val4, i32 60 )
	%tmp12 = load %struct.regobj*** getelementptr (%struct.regmngobj* @regmng, i32 0, i32 18, i32 0), align 8		; <%struct.regobj**> [#uses=1]
	%tmp1314 = sext i32 %i.0.reg2mem.0 to i64		; <i64> [#uses=1]
	%tmp15 = getelementptr %struct.regobj** %tmp12, i64 %tmp1314		; <%struct.regobj**> [#uses=1]
	%tmp19 = load %struct.regobj** %tmp15, align 8		; <%struct.regobj*> [#uses=1]
	%tmp20 = getelementptr %struct.regobj* %tmp19, i32 0, i32 6		; <i32*> [#uses=1]
	store i32 %i.0.reg2mem.0, i32* %tmp20, align 8
	%tmp23 = add i32 %i.0.reg2mem.0, 1		; <i32> [#uses=2]
	%tmp28 = load i32* getelementptr (%struct.regmngobj* @regmng, i32 0, i32 18, i32 4), align 8		; <i32> [#uses=2]
	%tmp30 = icmp sgt i32 %tmp28, %tmp23		; <i1> [#uses=1]
	store i32 %val4, i32* @cg_caller_call_site_var, align 4
	store i32 %val3, i32* @cg_caller_id_var, align 4
	br i1 %tmp30, label %bb, label %bb56

bb33:		; preds = %bb56, %bb33
	%i.1.reg2mem.0 = phi i32 [ %tmp55, %bb33 ], [ 0, %bb56 ]		; <i32> [#uses=2]
	%val31 = load i32* @cg_caller_id_var, align 4		; <i32> [#uses=2]
	%val42 = load i32* @cg_caller_call_site_var, align 4		; <i32> [#uses=2]
	store i32 61, i32* @cg_caller_id_var, align 4
	call void @CallEdgeProfiler( i32 %val31, i32 %val42, i32 61 )
	%tmp42 = load %struct.regobj*** getelementptr (%struct.regmngobj* @regmng, i32 0, i32 18, i32 0), align 8		; <%struct.regobj**> [#uses=1]
	%tmp4344 = sext i32 %i.1.reg2mem.0 to i64		; <i64> [#uses=1]
	%tmp45 = getelementptr %struct.regobj** %tmp42, i64 %tmp4344		; <%struct.regobj**> [#uses=1]
	%tmp49 = load %struct.regobj** %tmp45, align 8		; <%struct.regobj*> [#uses=1]
	%tmp53 = getelementptr %struct.regobj* %tmp49, i32 0, i32 9, i32 1		; <i32*> [#uses=1]
	store i32 0, i32* %tmp53, align 8
	%tmp55 = add i32 %i.1.reg2mem.0, 1		; <i32> [#uses=2]
	%tmp60395 = load i32* getelementptr (%struct.regmngobj* @regmng, i32 0, i32 18, i32 4), align 8		; <i32> [#uses=1]
	%tmp62397 = icmp sgt i32 %tmp60395, %tmp55		; <i1> [#uses=1]
	store i32 %val42, i32* @cg_caller_call_site_var, align 4
	store i32 %val31, i32* @cg_caller_id_var, align 4
	br i1 %tmp62397, label %bb33, label %bb370.preheader

bb56:		; preds = %bb, %entry
	%tmp60.rle = phi i32 [ %tmp28389, %entry ], [ %tmp28, %bb ]		; <i32> [#uses=1]
	%tmp62 = icmp sgt i32 %tmp60.rle, 0		; <i1> [#uses=1]
	br i1 %tmp62, label %bb33, label %bb370.preheader

bb.nph:		; preds = %bb358.preheader
	%tmp349400 = add i32 %indvar425, 2		; <i32> [#uses=2]
	%tmp351402 = icmp slt i32 %tmp349400, %indvar425		; <i1> [#uses=1]
	br label %bb67

bb67:		; preds = %bb355, %bb.nph
	%indvar420 = phi i32 [ 0, %bb.nph ], [ %x.0408, %bb355 ]		; <i32> [#uses=5]
	%val35 = load i32* @cg_caller_id_var, align 4		; <i32> [#uses=2]
	%val46 = load i32* @cg_caller_call_site_var, align 4		; <i32> [#uses=2]
	store i32 63, i32* @cg_caller_id_var, align 4
	call void @CallEdgeProfiler( i32 %val35, i32 %val46, i32 63 )
	%x.0408 = add i32 %indvar420, 1		; <i32> [#uses=2]
	%tmp77 = load %struct.regobj*** getelementptr (%struct.regmngobj* @regmng, i32 0, i32 6), align 8		; <%struct.regobj**> [#uses=1]
	%tmp80 = load i32* getelementptr (%struct.regmngobj* @regmng, i32 0, i32 16), align 8		; <i32> [#uses=1]
	%tmp82 = mul i32 %tmp80, %y.0413		; <i32> [#uses=1]
	%tmp84 = add i32 %tmp82, %x.0408		; <i32> [#uses=1]
	%tmp8485 = sext i32 %tmp84 to i64		; <i64> [#uses=1]
	%tmp86 = getelementptr %struct.regobj** %tmp77, i64 %tmp8485		; <%struct.regobj**> [#uses=1]
	%tmp90 = load %struct.regobj** %tmp86, align 8		; <%struct.regobj*> [#uses=6]
	%tmp92 = icmp eq %struct.regobj* %tmp90, null		; <i1> [#uses=1]
	%brmerge = or i1 %tmp92, %tmp351402		; <i1> [#uses=1]
	br i1 %brmerge, label %bb355, label %bb97.preheader

bb97.preheader:		; preds = %bb67
	%tmp339405 = add i32 %indvar420, 2		; <i32> [#uses=2]
	%tmp341407 = icmp slt i32 %tmp339405, %indvar420		; <i1> [#uses=1]
	%tmp164 = getelementptr %struct.regobj* %tmp90, i32 0, i32 9, i32 1		; <i32*> [#uses=4]
	%tmp143 = getelementptr %struct.regobj* %tmp90, i32 0, i32 9, i32 0		; <%struct.regobj***> [#uses=5]
	%tmp182 = getelementptr %struct.regobj* %tmp90, i32 0, i32 9, i32 2		; <i32*> [#uses=3]
	br i1 %tmp341407, label %bb355, label %bb97

bb97:		; preds = %bb347, %bb97.preheader
	%indvar423 = phi i32 [ %indvar.next424, %bb347 ], [ 0, %bb97.preheader ]		; <i32> [#uses=2]
	%val37 = load i32* @cg_caller_id_var, align 4		; <i32> [#uses=2]
	%val48 = load i32* @cg_caller_call_site_var, align 4		; <i32> [#uses=2]
	store i32 64, i32* @cg_caller_id_var, align 4
	call void @CallEdgeProfiler( i32 %val37, i32 %val48, i32 64 )
	%y1.0.reg2mem.0 = add i32 %indvar423, %indvar425		; <i32> [#uses=2]
	br label %bb100

bb100:		; preds = %bb337, %bb97
	%indvar = phi i32 [ 0, %bb97 ], [ %indvar.next419, %bb337 ]		; <i32> [#uses=2]
	%val39 = load i32* @cg_caller_id_var, align 4		; <i32> [#uses=2]
	%val410 = load i32* @cg_caller_call_site_var, align 4		; <i32> [#uses=2]
	store i32 65, i32* @cg_caller_id_var, align 4
	call void @CallEdgeProfiler( i32 %val39, i32 %val410, i32 65 )
	%x1.0.reg2mem.0 = add i32 %indvar, %indvar420		; <i32> [#uses=2]
	%tmp110 = load %struct.regobj*** getelementptr (%struct.regmngobj* @regmng, i32 0, i32 6), align 8		; <%struct.regobj**> [#uses=1]
	%tmp113 = load i32* getelementptr (%struct.regmngobj* @regmng, i32 0, i32 16), align 8		; <i32> [#uses=1]
	%tmp115 = mul i32 %tmp113, %y1.0.reg2mem.0		; <i32> [#uses=1]
	%tmp117 = add i32 %tmp115, %x1.0.reg2mem.0		; <i32> [#uses=1]
	%tmp117118 = sext i32 %tmp117 to i64		; <i64> [#uses=1]
	%tmp119 = getelementptr %struct.regobj** %tmp110, i64 %tmp117118		; <%struct.regobj**> [#uses=1]
	%tmp123 = load %struct.regobj** %tmp119, align 8		; <%struct.regobj*> [#uses=8]
	%tmp125 = icmp eq %struct.regobj* %tmp123, null		; <i1> [#uses=1]
	%tmp131 = icmp eq %struct.regobj* %tmp90, %tmp123		; <i1> [#uses=1]
	%bothcond = or i1 %tmp125, %tmp131		; <i1> [#uses=1]
	br i1 %bothcond, label %bb337, label %bb161.preheader

bb161.preheader:		; preds = %bb100
	%tmp165 = load i32* %tmp164, align 8		; <i32> [#uses=2]
	br label %bb161

bb135:		; preds = %bb161
	%tmp144 = load %struct.regobj*** %tmp143, align 8		; <%struct.regobj**> [#uses=1]
	%tmp145146 = sext i32 %i.2 to i64		; <i64> [#uses=1]
	%tmp147 = getelementptr %struct.regobj** %tmp144, i64 %tmp145146		; <%struct.regobj**> [#uses=1]
	%tmp151 = load %struct.regobj** %tmp147, align 8		; <%struct.regobj*> [#uses=1]
	%tmp153 = icmp eq %struct.regobj* %tmp151, %tmp123		; <i1> [#uses=1]
	store i32 %val412, i32* @cg_caller_call_site_var, align 4
	store i32 %val311, i32* @cg_caller_id_var, align 4
	br i1 %tmp153, label %bb337, label %cond_next158

cond_next158:		; preds = %bb135
	%indvar.next = add i32 %i.2, 1		; <i32> [#uses=1]
	br label %bb161

bb161:		; preds = %cond_next158, %bb161.preheader
	%i.2 = phi i32 [ 0, %bb161.preheader ], [ %indvar.next, %cond_next158 ]		; <i32> [#uses=3]
	%val311 = load i32* @cg_caller_id_var, align 4		; <i32> [#uses=3]
	%val412 = load i32* @cg_caller_call_site_var, align 4		; <i32> [#uses=3]
	store i32 66, i32* @cg_caller_id_var, align 4
	call void @CallEdgeProfiler( i32 %val311, i32 %val412, i32 66 )
	%tmp167 = icmp sgt i32 %tmp165, %i.2		; <i1> [#uses=1]
	store i32 %val412, i32* @cg_caller_call_site_var, align 4
	store i32 %val311, i32* @cg_caller_id_var, align 4
	br i1 %tmp167, label %bb135, label %cond_next174.critedge

cond_next174.critedge:		; preds = %bb161
	%tmp183 = load i32* %tmp182, align 8		; <i32> [#uses=2]
	%tmp184 = icmp eq i32 %tmp165, %tmp183		; <i1> [#uses=1]
	br i1 %tmp184, label %cond_true187, label %cond_next233

cond_true187:		; preds = %cond_next174.critedge
	%tmp194 = shl i32 %tmp183, 1		; <i32> [#uses=2]
	%tmp202 = malloc %struct.regobj*, i32 %tmp194		; <%struct.regobj**> [#uses=2]
	%tmpcast = bitcast %struct.regobj** %tmp202 to i8*		; <i8*> [#uses=1]
	%tmp212 = load i32* %tmp182, align 8		; <i32> [#uses=1]
	%tmp212213 = sext i32 %tmp212 to i64		; <i64> [#uses=1]
	%tmp214 = shl i64 %tmp212213, 3		; <i64> [#uses=1]
	%tmp217 = load %struct.regobj*** %tmp143, align 8		; <%struct.regobj**> [#uses=1]
	%tmp217220 = bitcast %struct.regobj** %tmp217 to i8*		; <i8*> [#uses=1]
	store i32 0, i32* @cg_caller_call_site_var, align 4
	store i32 15, i32* @cg_caller_id_var, align 4
	store i32 0, i32* @cg_caller_call_site_var, align 4
	store i32 62, i32* @cg_caller_id_var, align 4
	store i32 0, i32* @cg_caller_call_site_var, align 4
	store i32 63, i32* @cg_caller_id_var, align 4
	store i32 0, i32* @cg_caller_call_site_var, align 4
	store i32 64, i32* @cg_caller_id_var, align 4
	store i32 0, i32* @cg_caller_call_site_var, align 4
	store i32 65, i32* @cg_caller_id_var, align 4
	tail call void @llvm.memcpy.i64( i8* %tmpcast, i8* %tmp217220, i64 %tmp214, i32 8 )
	%tmp224 = load %struct.regobj*** %tmp143, align 8		; <%struct.regobj**> [#uses=1]
	free %struct.regobj** %tmp224
	store %struct.regobj** %tmp202, %struct.regobj*** %tmp143, align 8
	store i32 %tmp194, i32* %tmp182, align 8
	br label %cond_next233

cond_next233:		; preds = %cond_true187, %cond_next174.critedge
	%tmp236 = load %struct.regobj*** %tmp143, align 8		; <%struct.regobj**> [#uses=1]
	%tmp239 = load i32* %tmp164, align 8		; <i32> [#uses=1]
	%tmp239242 = sext i32 %tmp239 to i64		; <i64> [#uses=1]
	%tmp243 = getelementptr %struct.regobj** %tmp236, i64 %tmp239242		; <%struct.regobj**> [#uses=1]
	store %struct.regobj* %tmp123, %struct.regobj** %tmp243, align 8
	%tmp246 = load i32* %tmp164, align 8		; <i32> [#uses=1]
	%tmp247 = add i32 %tmp246, 1		; <i32> [#uses=1]
	store i32 %tmp247, i32* %tmp164, align 8
	%tmp255 = getelementptr %struct.regobj* %tmp123, i32 0, i32 9, i32 1		; <i32*> [#uses=4]
	%tmp256 = load i32* %tmp255, align 8		; <i32> [#uses=1]
	%tmp258 = getelementptr %struct.regobj* %tmp123, i32 0, i32 9, i32 2		; <i32*> [#uses=3]
	%tmp259 = load i32* %tmp258, align 8		; <i32> [#uses=2]
	%tmp260 = icmp eq i32 %tmp256, %tmp259		; <i1> [#uses=1]
	br i1 %tmp260, label %cond_true263, label %cond_next315

cond_true263:		; preds = %cond_next233
	%tmp273 = shl i32 %tmp259, 1		; <i32> [#uses=2]
	%tmp283 = malloc %struct.regobj*, i32 %tmp273		; <%struct.regobj**> [#uses=2]
	%tmpcast384 = bitcast %struct.regobj** %tmp283 to i8*		; <i8*> [#uses=1]
	%tmp293 = load i32* %tmp258, align 8		; <i32> [#uses=1]
	%tmp293294 = sext i32 %tmp293 to i64		; <i64> [#uses=1]
	%tmp295 = shl i64 %tmp293294, 3		; <i64> [#uses=1]
	%tmp297 = getelementptr %struct.regobj* %tmp123, i32 0, i32 9, i32 0		; <%struct.regobj***> [#uses=3]
	%tmp298 = load %struct.regobj*** %tmp297, align 8		; <%struct.regobj**> [#uses=1]
	%tmp298301 = bitcast %struct.regobj** %tmp298 to i8*		; <i8*> [#uses=1]
	store i32 1, i32* @cg_caller_call_site_var, align 4
	store i32 15, i32* @cg_caller_id_var, align 4
	store i32 1, i32* @cg_caller_call_site_var, align 4
	store i32 62, i32* @cg_caller_id_var, align 4
	store i32 1, i32* @cg_caller_call_site_var, align 4
	store i32 63, i32* @cg_caller_id_var, align 4
	store i32 1, i32* @cg_caller_call_site_var, align 4
	store i32 64, i32* @cg_caller_id_var, align 4
	store i32 1, i32* @cg_caller_call_site_var, align 4
	store i32 65, i32* @cg_caller_id_var, align 4
	tail call void @llvm.memcpy.i64( i8* %tmpcast384, i8* %tmp298301, i64 %tmp295, i32 8 )
	%tmp305 = load %struct.regobj*** %tmp297, align 8		; <%struct.regobj**> [#uses=1]
	free %struct.regobj** %tmp305
	store %struct.regobj** %tmp283, %struct.regobj*** %tmp297, align 8
	store i32 %tmp273, i32* %tmp258, align 8
	br label %cond_next315

cond_next315:		; preds = %cond_true263, %cond_next233
	%tmp317 = getelementptr %struct.regobj* %tmp123, i32 0, i32 9, i32 0		; <%struct.regobj***> [#uses=1]
	%tmp318 = load %struct.regobj*** %tmp317, align 8		; <%struct.regobj**> [#uses=1]
	%tmp321 = load i32* %tmp255, align 8		; <i32> [#uses=1]
	%tmp321324 = sext i32 %tmp321 to i64		; <i64> [#uses=1]
	%tmp325 = getelementptr %struct.regobj** %tmp318, i64 %tmp321324		; <%struct.regobj**> [#uses=1]
	store %struct.regobj* %tmp90, %struct.regobj** %tmp325, align 8
	%tmp328 = load i32* %tmp255, align 8		; <i32> [#uses=1]
	%tmp329 = add i32 %tmp328, 1		; <i32> [#uses=1]
	store i32 %tmp329, i32* %tmp255, align 8
	br label %bb337

bb337:		; preds = %cond_next315, %bb135, %bb100
	%tmp336 = add i32 %x1.0.reg2mem.0, 1		; <i32> [#uses=1]
	%tmp341 = icmp slt i32 %tmp339405, %tmp336		; <i1> [#uses=1]
	%indvar.next419 = add i32 %indvar, 1		; <i32> [#uses=1]
	store i32 %val410, i32* @cg_caller_call_site_var, align 4
	store i32 %val39, i32* @cg_caller_id_var, align 4
	br i1 %tmp341, label %bb347, label %bb100

bb347:		; preds = %bb337
	%tmp346 = add i32 %y1.0.reg2mem.0, 1		; <i32> [#uses=1]
	%tmp351 = icmp slt i32 %tmp349400, %tmp346		; <i1> [#uses=1]
	%indvar.next424 = add i32 %indvar423, 1		; <i32> [#uses=1]
	store i32 %val48, i32* @cg_caller_call_site_var, align 4
	store i32 %val37, i32* @cg_caller_id_var, align 4
	br i1 %tmp351, label %bb355, label %bb97

bb355:		; preds = %bb347, %bb97.preheader, %bb67
	%tmp357 = add i32 %indvar420, 2		; <i32> [#uses=1]
	%tmp361 = load i32* getelementptr (%struct.regmngobj* @regmng, i32 0, i32 12), align 8		; <i32> [#uses=1]
	%tmp362 = add i32 %tmp361, -1		; <i32> [#uses=1]
	%tmp364 = icmp slt i32 %tmp362, %tmp357		; <i1> [#uses=1]
	store i32 %val46, i32* @cg_caller_call_site_var, align 4
	store i32 %val35, i32* @cg_caller_id_var, align 4
	br i1 %tmp364, label %bb367, label %bb67

bb367:		; preds = %bb358.preheader, %bb355
	%tmp369 = add i32 %indvar425, 2		; <i32> [#uses=1]
	%tmp373 = load i32* getelementptr (%struct.regmngobj* @regmng, i32 0, i32 13), align 8		; <i32> [#uses=1]
	%tmp374 = add i32 %tmp373, -1		; <i32> [#uses=1]
	%tmp376 = icmp slt i32 %tmp374, %tmp369		; <i1> [#uses=1]
	store i32 %val44, i32* @cg_caller_call_site_var, align 4
	store i32 %val33, i32* @cg_caller_id_var, align 4
	br i1 %tmp376, label %return, label %bb358.preheader

bb370.preheader:		; preds = %bb56, %bb33
	%tmp373415 = load i32* getelementptr (%struct.regmngobj* @regmng, i32 0, i32 13), align 8		; <i32> [#uses=1]
	%tmp374416 = add i32 %tmp373415, -1		; <i32> [#uses=1]
	%tmp376417 = icmp slt i32 %tmp374416, 1		; <i1> [#uses=1]
	br i1 %tmp376417, label %return, label %bb358.preheader

bb358.preheader:		; preds = %bb370.preheader, %bb367
	%indvar425 = phi i32 [ %y.0413, %bb367 ], [ 0, %bb370.preheader ]		; <i32> [#uses=5]
	%val33 = load i32* @cg_caller_id_var, align 4		; <i32> [#uses=2]
	%val44 = load i32* @cg_caller_call_site_var, align 4		; <i32> [#uses=2]
	store i32 62, i32* @cg_caller_id_var, align 4
	call void @CallEdgeProfiler( i32 %val33, i32 %val44, i32 62 )
	%y.0413 = add i32 %indvar425, 1		; <i32> [#uses=2]
	%tmp361410 = load i32* getelementptr (%struct.regmngobj* @regmng, i32 0, i32 12), align 8		; <i32> [#uses=1]
	%tmp362411 = add i32 %tmp361410, -1		; <i32> [#uses=1]
	%tmp364412 = icmp slt i32 %tmp362411, 1		; <i1> [#uses=1]
	br i1 %tmp364412, label %bb367, label %bb.nph

return:		; preds = %bb370.preheader, %bb367
	store i32 %val2, i32* @cg_caller_call_site_var, align 4
	store i32 %val, i32* @cg_caller_id_var, align 4
	ret void
}

define internal fastcc void @_ZN15largesolidarrayIP6regobjE8doublingEv() nounwind  {
entry:
	%val = load i32* @cg_caller_id_var, align 4		; <i32> [#uses=2]
	%val2 = load i32* @cg_caller_call_site_var, align 4		; <i32> [#uses=2]
	store i32 16, i32* @cg_caller_id_var, align 4
	call void @CallEdgeProfiler( i32 %val, i32 %val2, i32 16 )
	%tmp2 = load i32* getelementptr (%struct.regmngobj* @regmng, i32 0, i32 18, i32 5), align 8		; <i32> [#uses=2]
	%tmp3 = shl i32 %tmp2, 1		; <i32> [#uses=4]
	%tmp7 = malloc %struct.regobj*, i32 %tmp3		; <%struct.regobj**> [#uses=2]
	%tmpcast218 = bitcast %struct.regobj** %tmp7 to i8*		; <i8*> [#uses=1]
	%tmp1112 = sext i32 %tmp2 to i64		; <i64> [#uses=1]
	%tmp13 = shl i64 %tmp1112, 3		; <i64> [#uses=1]
	%tmp16 = load %struct.regobj*** getelementptr (%struct.regmngobj* @regmng, i32 0, i32 18, i32 0), align 8		; <%struct.regobj**> [#uses=1]
	%tmp1619 = bitcast %struct.regobj** %tmp16 to i8*		; <i8*> [#uses=1]
	store i32 0, i32* @cg_caller_call_site_var, align 4
	store i32 16, i32* @cg_caller_id_var, align 4
	tail call void @llvm.memcpy.i64( i8* %tmpcast218, i8* %tmp1619, i64 %tmp13, i32 8 )
	%tmp22 = load %struct.regobj*** getelementptr (%struct.regmngobj* @regmng, i32 0, i32 18, i32 0), align 8		; <%struct.regobj**> [#uses=1]
	free %struct.regobj** %tmp22
	store %struct.regobj** %tmp7, %struct.regobj*** getelementptr (%struct.regmngobj* @regmng, i32 0, i32 18, i32 0), align 8
	%tmp34 = load i32* getelementptr (%struct.regmngobj* @regmng, i32 0, i32 18, i32 2, i32 2), align 8		; <i32> [#uses=2]
	%tmp35 = shl i32 %tmp34, 1		; <i32> [#uses=2]
	%tmp43 = malloc i32, i32 %tmp35		; <i32*> [#uses=2]
	%tmpcast216 = bitcast i32* %tmp43 to i8*		; <i8*> [#uses=1]
	%tmp5152 = sext i32 %tmp34 to i64		; <i64> [#uses=1]
	%tmp53 = shl i64 %tmp5152, 2		; <i64> [#uses=1]
	%tmp56 = load i32** getelementptr (%struct.regmngobj* @regmng, i32 0, i32 18, i32 2, i32 0), align 8		; <i32*> [#uses=1]
	%tmp5659 = bitcast i32* %tmp56 to i8*		; <i8*> [#uses=1]
	store i32 1, i32* @cg_caller_call_site_var, align 4
	store i32 16, i32* @cg_caller_id_var, align 4
	tail call void @llvm.memcpy.i64( i8* %tmpcast216, i8* %tmp5659, i64 %tmp53, i32 4 )
	%tmp62 = load i32** getelementptr (%struct.regmngobj* @regmng, i32 0, i32 18, i32 2, i32 0), align 8		; <i32*> [#uses=1]
	free i32* %tmp62
	store i32* %tmp43, i32** getelementptr (%struct.regmngobj* @regmng, i32 0, i32 18, i32 2, i32 0), align 8
	store i32 %tmp35, i32* getelementptr (%struct.regmngobj* @regmng, i32 0, i32 18, i32 2, i32 2), align 8
	%tmp81 = load i32* getelementptr (%struct.regmngobj* @regmng, i32 0, i32 18, i32 3, i32 2), align 8		; <i32> [#uses=2]
	%tmp82 = shl i32 %tmp81, 1		; <i32> [#uses=2]
	%tmp92 = malloc i32, i32 %tmp82		; <i32*> [#uses=2]
	%tmpcast214 = bitcast i32* %tmp92 to i8*		; <i8*> [#uses=1]
	%tmp102103 = sext i32 %tmp81 to i64		; <i64> [#uses=1]
	%tmp104 = shl i64 %tmp102103, 2		; <i64> [#uses=1]
	%tmp107 = load i32** getelementptr (%struct.regmngobj* @regmng, i32 0, i32 18, i32 3, i32 0), align 8		; <i32*> [#uses=1]
	%tmp107110 = bitcast i32* %tmp107 to i8*		; <i8*> [#uses=1]
	store i32 2, i32* @cg_caller_call_site_var, align 4
	store i32 16, i32* @cg_caller_id_var, align 4
	tail call void @llvm.memcpy.i64( i8* %tmpcast214, i8* %tmp107110, i64 %tmp104, i32 4 )
	%tmp114 = load i32** getelementptr (%struct.regmngobj* @regmng, i32 0, i32 18, i32 3, i32 0), align 8		; <i32*> [#uses=1]
	free i32* %tmp114
	store i32* %tmp92, i32** getelementptr (%struct.regmngobj* @regmng, i32 0, i32 18, i32 3, i32 0), align 8
	store i32 %tmp82, i32* getelementptr (%struct.regmngobj* @regmng, i32 0, i32 18, i32 3, i32 2), align 8
	%tmp126 = load i32* getelementptr (%struct.regmngobj* @regmng, i32 0, i32 18, i32 5), align 8		; <i32> [#uses=3]
	%tmp197222 = icmp slt i32 %tmp126, %tmp3		; <i1> [#uses=1]
	br i1 %tmp197222, label %bb127.preheader, label %bb200

bb127.preheader:		; preds = %entry
	%tmp225 = sub i32 %tmp3, %tmp126		; <i32> [#uses=2]
	%tmp226 = add i32 %tmp225, -1		; <i32> [#uses=1]
	%tmp227 = icmp slt i32 %tmp226, 0		; <i1> [#uses=1]
	%tmp228 = select i1 %tmp227, i32 1, i32 %tmp225		; <i32> [#uses=1]
	br label %bb127

bb127:		; preds = %cond_next176, %bb127.preheader
	%indvar = phi i32 [ 0, %bb127.preheader ], [ %indvar.next, %cond_next176 ]		; <i32> [#uses=2]
	%val3 = load i32* @cg_caller_id_var, align 4		; <i32> [#uses=2]
	%val4 = load i32* @cg_caller_call_site_var, align 4		; <i32> [#uses=2]
	store i32 67, i32* @cg_caller_id_var, align 4
	call void @CallEdgeProfiler( i32 %val3, i32 %val4, i32 67 )
	%i.0.reg2mem.0 = add i32 %indvar, %tmp126		; <i32> [#uses=1]
	%tmp134 = load i32* getelementptr (%struct.regmngobj* @regmng, i32 0, i32 18, i32 1, i32 1), align 8		; <i32> [#uses=1]
	%tmp137 = load i32* getelementptr (%struct.regmngobj* @regmng, i32 0, i32 18, i32 1, i32 2), align 8		; <i32> [#uses=3]
	%tmp138 = icmp eq i32 %tmp134, %tmp137		; <i1> [#uses=1]
	br i1 %tmp138, label %cond_true141, label %cond_next176

cond_true141:		; preds = %bb127
	%tmp149 = shl i32 %tmp137, 1		; <i32> [#uses=2]
	%tmp153 = malloc i32, i32 %tmp149		; <i32*> [#uses=2]
	%tmpcast = bitcast i32* %tmp153 to i8*		; <i8*> [#uses=1]
	%tmp157158 = sext i32 %tmp137 to i64		; <i64> [#uses=1]
	%tmp159 = shl i64 %tmp157158, 2		; <i64> [#uses=1]
	%tmp162 = load i32** getelementptr (%struct.regmngobj* @regmng, i32 0, i32 18, i32 1, i32 0), align 8		; <i32*> [#uses=1]
	%tmp162165 = bitcast i32* %tmp162 to i8*		; <i8*> [#uses=1]
	store i32 3, i32* @cg_caller_call_site_var, align 4
	store i32 16, i32* @cg_caller_id_var, align 4
	store i32 0, i32* @cg_caller_call_site_var, align 4
	store i32 67, i32* @cg_caller_id_var, align 4
	tail call void @llvm.memcpy.i64( i8* %tmpcast, i8* %tmp162165, i64 %tmp159, i32 4 )
	%tmp168 = load i32** getelementptr (%struct.regmngobj* @regmng, i32 0, i32 18, i32 1, i32 0), align 8		; <i32*> [#uses=1]
	free i32* %tmp168
	store i32* %tmp153, i32** getelementptr (%struct.regmngobj* @regmng, i32 0, i32 18, i32 1, i32 0), align 8
	store i32 %tmp149, i32* getelementptr (%struct.regmngobj* @regmng, i32 0, i32 18, i32 1, i32 2), align 8
	br label %cond_next176

cond_next176:		; preds = %cond_true141, %bb127
	%tmp179 = load i32** getelementptr (%struct.regmngobj* @regmng, i32 0, i32 18, i32 1, i32 0), align 8		; <i32*> [#uses=1]
	%tmp182 = load i32* getelementptr (%struct.regmngobj* @regmng, i32 0, i32 18, i32 1, i32 1), align 8		; <i32> [#uses=1]
	%tmp182183 = sext i32 %tmp182 to i64		; <i64> [#uses=1]
	%tmp184 = getelementptr i32* %tmp179, i64 %tmp182183		; <i32*> [#uses=1]
	store i32 %i.0.reg2mem.0, i32* %tmp184, align 4
	%tmp188 = load i32* getelementptr (%struct.regmngobj* @regmng, i32 0, i32 18, i32 1, i32 1), align 8		; <i32> [#uses=1]
	%tmp189 = add i32 %tmp188, 1		; <i32> [#uses=1]
	store i32 %tmp189, i32* getelementptr (%struct.regmngobj* @regmng, i32 0, i32 18, i32 1, i32 1), align 8
	%indvar.next = add i32 %indvar, 1		; <i32> [#uses=2]
	%exitcond = icmp eq i32 %indvar.next, %tmp228		; <i1> [#uses=1]
	store i32 %val4, i32* @cg_caller_call_site_var, align 4
	store i32 %val3, i32* @cg_caller_id_var, align 4
	br i1 %exitcond, label %bb200, label %bb127

bb200:		; preds = %cond_next176, %entry
	store i32 %tmp3, i32* getelementptr (%struct.regmngobj* @regmng, i32 0, i32 18, i32 5), align 8
	store i32 %val2, i32* @cg_caller_call_site_var, align 4
	store i32 %val, i32* @cg_caller_id_var, align 4
	ret void
}

declare i8* @_Znwm(i64)

define internal fastcc void @_ZN6regobj6createEii(%struct.regobj* %this, i32 %x0, i32 %y0) nounwind  {
entry:
	%val = load i32* @cg_caller_id_var, align 4		; <i32> [#uses=3]
	%val2 = load i32* @cg_caller_call_site_var, align 4		; <i32> [#uses=3]
	store i32 17, i32* @cg_caller_id_var, align 4
	call void @CallEdgeProfiler( i32 %val, i32 %val2, i32 17 )
	%tmp3 = getelementptr %struct.regobj* %this, i32 0, i32 5, i32 0		; <i32*> [#uses=2]
	store i32 %x0, i32* %tmp3, align 8
	%tmp7 = getelementptr %struct.regobj* %this, i32 0, i32 5, i32 1		; <i32*> [#uses=2]
	store i32 %y0, i32* %tmp7, align 8
	%tmp10 = getelementptr %struct.regobj* %this, i32 0, i32 4		; <i32*> [#uses=3]
	store i32 0, i32* %tmp10, align 8
	store i32 128, i32* getelementptr (%struct.boundart* @_ZN6regobj9bound1arpE, i32 0, i32 2), align 16
	store i32 0, i32* getelementptr (%struct.boundart* @_ZN6regobj9bound1arpE, i32 0, i32 1), align 16
	%tmp23273 = malloc [128 x %struct.pointt]		; <[128 x %struct.pointt]*> [#uses=1]
	%tmp23273.sub = getelementptr [128 x %struct.pointt]* %tmp23273, i32 0, i32 0		; <%struct.pointt*> [#uses=1]
	store %struct.pointt* %tmp23273.sub, %struct.pointt** getelementptr (%struct.boundart* @_ZN6regobj9bound1arpE, i32 0, i32 0), align 16
	store i32 128, i32* getelementptr (%struct.boundart* @_ZN6regobj9bound2arpE, i32 0, i32 2), align 16
	store i32 0, i32* getelementptr (%struct.boundart* @_ZN6regobj9bound2arpE, i32 0, i32 1), align 16
	%tmp43272 = malloc [128 x %struct.pointt]		; <[128 x %struct.pointt]*> [#uses=1]
	%tmp43272.sub = getelementptr [128 x %struct.pointt]* %tmp43272, i32 0, i32 0		; <%struct.pointt*> [#uses=1]
	store %struct.pointt* %tmp43272.sub, %struct.pointt** getelementptr (%struct.boundart* @_ZN6regobj9bound2arpE, i32 0, i32 0), align 16
	%tmp55 = getelementptr %struct.regobj* %this, i32 0, i32 9, i32 2		; <i32*> [#uses=1]
	store i32 4, i32* %tmp55, align 8
	%tmp58 = getelementptr %struct.regobj* %this, i32 0, i32 9, i32 1		; <i32*> [#uses=1]
	store i32 0, i32* %tmp58, align 8
	%tmp70271 = malloc [4 x %struct.regobj*]		; <[4 x %struct.regobj*]*> [#uses=1]
	%tmp70271.sub = getelementptr [4 x %struct.regobj*]* %tmp70271, i32 0, i32 0		; <%struct.regobj**> [#uses=1]
	%tmp76 = getelementptr %struct.regobj* %this, i32 0, i32 9, i32 0		; <%struct.regobj***> [#uses=1]
	store %struct.regobj** %tmp70271.sub, %struct.regobj*** %tmp76, align 8
	%tmp78 = add i32 %x0, -1		; <i32> [#uses=2]
	%tmp80 = add i32 %y0, -1		; <i32> [#uses=2]
	%tmp82 = add i32 %x0, 1		; <i32> [#uses=2]
	%tmp84 = add i32 %y0, 1		; <i32> [#uses=2]
	%tmp86 = icmp slt i32 %tmp78, 0		; <i1> [#uses=1]
	%x1.0 = select i1 %tmp86, i32 0, i32 %tmp78		; <i32> [#uses=1]
	%tmp89 = icmp slt i32 %tmp80, 0		; <i1> [#uses=1]
	%y1.0 = select i1 %tmp89, i32 0, i32 %tmp80		; <i32> [#uses=3]
	%tmp95 = getelementptr %struct.regobj* %this, i32 0, i32 3		; <%struct.regmngobj**> [#uses=3]
	%tmp96 = load %struct.regmngobj** %tmp95, align 8		; <%struct.regmngobj*> [#uses=2]
	%tmp97 = getelementptr %struct.regmngobj* %tmp96, i32 0, i32 12		; <i32*> [#uses=1]
	%tmp98 = load i32* %tmp97, align 8		; <i32> [#uses=2]
	%tmp100 = icmp slt i32 %tmp98, %tmp82		; <i1> [#uses=1]
	%x2.0 = select i1 %tmp100, i32 %tmp98, i32 %tmp82		; <i32> [#uses=2]
	%tmp113 = getelementptr %struct.regmngobj* %tmp96, i32 0, i32 13		; <i32*> [#uses=1]
	%tmp114 = load i32* %tmp113, align 8		; <i32> [#uses=3]
	%tmp116 = icmp slt i32 %tmp114, %tmp84		; <i1> [#uses=1]
	br i1 %tmp116, label %cond_true119, label %bb175

cond_true119:		; preds = %entry
	%tmp178250 = icmp sgt i32 %y1.0, %tmp114		; <i1> [#uses=1]
	br i1 %tmp178250, label %bb181, label %bb166.preheader

bb166.preheader:		; preds = %bb175, %cond_true119
	%y2.0.reg2mem.0.ph = phi i32 [ %tmp114, %cond_true119 ], [ %y2.0, %bb175 ]		; <i32> [#uses=1]
	%y.0.reg2mem.0.ph = phi i32 [ %y1.0, %cond_true119 ], [ %y.0, %bb175 ]		; <i32> [#uses=5]
	br label %bb166

bb129:		; preds = %bb166, %cond_next152.i
	%indvar = phi i32 [ %indvar.next, %cond_next152.i ], [ 0, %bb166 ]		; <i32> [#uses=2]
	%val33 = load i32* @cg_caller_id_var, align 4		; <i32> [#uses=5]
	%val44 = load i32* @cg_caller_call_site_var, align 4		; <i32> [#uses=5]
	store i32 70, i32* @cg_caller_id_var, align 4
	call void @CallEdgeProfiler( i32 %val33, i32 %val44, i32 70 )
	%x.0.reg2mem.0 = add i32 %indvar, %x.0		; <i32> [#uses=6]
	%tmp132 = load %struct.regmngobj** %tmp95, align 8		; <%struct.regmngobj*> [#uses=5]
	%tmp140 = getelementptr %struct.regmngobj* %tmp132, i32 0, i32 6		; <%struct.regobj***> [#uses=1]
	%tmp141 = load %struct.regobj*** %tmp140, align 8		; <%struct.regobj**> [#uses=1]
	%tmp143 = getelementptr %struct.regmngobj* %tmp132, i32 0, i32 16		; <i32*> [#uses=1]
	%tmp144 = load i32* %tmp143, align 8		; <i32> [#uses=1]
	%tmp146 = mul i32 %tmp144, %y.0.reg2mem.0.ph		; <i32> [#uses=1]
	%tmp148 = add i32 %tmp146, %x.0.reg2mem.0		; <i32> [#uses=1]
	%tmp148149 = sext i32 %tmp148 to i64		; <i64> [#uses=2]
	%tmp150 = getelementptr %struct.regobj** %tmp141, i64 %tmp148149		; <%struct.regobj**> [#uses=1]
	%tmp154 = load %struct.regobj** %tmp150, align 8		; <%struct.regobj*> [#uses=1]
	%tmp155 = icmp eq %struct.regobj* %tmp154, null		; <i1> [#uses=1]
	store i32 %val44, i32* @cg_caller_call_site_var, align 4
	store i32 %val33, i32* @cg_caller_id_var, align 4
	br i1 %tmp155, label %cond_true159, label %cond_next163

cond_true159:		; preds = %bb129
	%tmp19.i = getelementptr %struct.regmngobj* %tmp132, i32 0, i32 7		; <i8**> [#uses=1]
	%tmp20.i = load i8** %tmp19.i, align 8		; <i8*> [#uses=1]
	%tmp29.i = getelementptr i8* %tmp20.i, i64 %tmp148149		; <i8*> [#uses=1]
	%tmp30.i = load i8* %tmp29.i, align 1		; <i8> [#uses=1]
	%tmp33343537.i = zext i8 %tmp30.i to i64		; <i64> [#uses=1]
	%tmp38.i = getelementptr %struct.regmngobj* %tmp132, i32 0, i32 8, i64 %tmp33343537.i		; <i8*> [#uses=1]
	%tmp39.i = load i8* %tmp38.i, align 1		; <i8> [#uses=1]
	%toBool.i = icmp eq i8 %tmp39.i, 0		; <i1> [#uses=1]
	store i32 %val44, i32* @cg_caller_call_site_var, align 4
	store i32 %val33, i32* @cg_caller_id_var, align 4
	br i1 %toBool.i, label %cond_next163, label %cond_true.i

cond_true.i:		; preds = %cond_true159
	%tmp44.i = load i32* %tmp3, align 8		; <i32> [#uses=1]
	%tmp46.i = sub i32 %x.0.reg2mem.0, %tmp44.i		; <i32> [#uses=2]
	%tmp51.i = mul i32 %tmp46.i, %tmp46.i		; <i32> [#uses=1]
	%tmp57.i = load i32* %tmp7, align 8		; <i32> [#uses=1]
	%tmp59.i = sub i32 %y.0.reg2mem.0.ph, %tmp57.i		; <i32> [#uses=2]
	%tmp64.i = mul i32 %tmp59.i, %tmp59.i		; <i32> [#uses=1]
	%tmp69.i = add i32 %tmp64.i, %tmp51.i		; <i32> [#uses=1]
	%tmp6970.i = sitofp i32 %tmp69.i to float		; <float> [#uses=1]
	%tmp74.i = add float %tmp6970.i, 5.000000e-01		; <float> [#uses=1]
	%tmp7475.i = fptosi float %tmp74.i to i32		; <i32> [#uses=1]
	%tmp81.i = getelementptr %struct.regmngobj* %tmp132, i32 0, i32 10		; <i32*> [#uses=1]
	%tmp82.i = load i32* %tmp81.i, align 8		; <i32> [#uses=1]
	%tmp84.i = icmp sgt i32 %tmp7475.i, %tmp82.i		; <i1> [#uses=1]
	store i32 %val44, i32* @cg_caller_call_site_var, align 4
	store i32 %val33, i32* @cg_caller_id_var, align 4
	br i1 %tmp84.i, label %cond_next163, label %cond_true88.i

cond_true88.i:		; preds = %cond_true.i
	%tmp100.i = load i32* getelementptr (%struct.boundart* @_ZN6regobj9bound1arpE, i32 0, i32 1), align 8		; <i32> [#uses=1]
	%tmp103.i = load i32* getelementptr (%struct.boundart* @_ZN6regobj9bound1arpE, i32 0, i32 2), align 8		; <i32> [#uses=3]
	%tmp104.i = icmp eq i32 %tmp100.i, %tmp103.i		; <i1> [#uses=1]
	br i1 %tmp104.i, label %cond_true107.i, label %cond_next152.i

cond_true107.i:		; preds = %cond_true88.i
	%tmp114.i = shl i32 %tmp103.i, 1		; <i32> [#uses=2]
	%tmp122.i = malloc %struct.pointt, i32 %tmp114.i		; <%struct.pointt*> [#uses=2]
	%tmpcast.i = bitcast %struct.pointt* %tmp122.i to i8*		; <i8*> [#uses=1]
	%tmp132133.i = sext i32 %tmp103.i to i64		; <i64> [#uses=1]
	%tmp134.i = shl i64 %tmp132133.i, 3		; <i64> [#uses=1]
	%tmp137.i = load %struct.pointt** getelementptr (%struct.boundart* @_ZN6regobj9bound1arpE, i32 0, i32 0), align 16		; <%struct.pointt*> [#uses=1]
	%tmp137140.i = bitcast %struct.pointt* %tmp137.i to i8*		; <i8*> [#uses=1]
	store i32 0, i32* @cg_caller_call_site_var, align 4
	store i32 17, i32* @cg_caller_id_var, align 4
	store i32 0, i32* @cg_caller_call_site_var, align 4
	store i32 69, i32* @cg_caller_id_var, align 4
	store i32 0, i32* @cg_caller_call_site_var, align 4
	store i32 70, i32* @cg_caller_id_var, align 4
	tail call void @llvm.memcpy.i64( i8* %tmpcast.i, i8* %tmp137140.i, i64 %tmp134.i, i32 4 ) nounwind 
	%tmp143.i = load %struct.pointt** getelementptr (%struct.boundart* @_ZN6regobj9bound1arpE, i32 0, i32 0), align 16		; <%struct.pointt*> [#uses=1]
	free %struct.pointt* %tmp143.i
	store %struct.pointt* %tmp122.i, %struct.pointt** getelementptr (%struct.boundart* @_ZN6regobj9bound1arpE, i32 0, i32 0), align 16
	store i32 %tmp114.i, i32* getelementptr (%struct.boundart* @_ZN6regobj9bound1arpE, i32 0, i32 2), align 8
	br label %cond_next152.i

cond_next152.i:		; preds = %cond_true107.i, %cond_true88.i
	%tmp155.i = load %struct.pointt** getelementptr (%struct.boundart* @_ZN6regobj9bound1arpE, i32 0, i32 0), align 16		; <%struct.pointt*> [#uses=2]
	%tmp158.i = load i32* getelementptr (%struct.boundart* @_ZN6regobj9bound1arpE, i32 0, i32 1), align 8		; <i32> [#uses=1]
	%tmp158166.i = sext i32 %tmp158.i to i64		; <i64> [#uses=2]
	%tmp168.i = getelementptr %struct.pointt* %tmp155.i, i64 %tmp158166.i, i32 0		; <i32*> [#uses=1]
	store i32 %x.0.reg2mem.0, i32* %tmp168.i, align 4
	%tmp171.i = getelementptr %struct.pointt* %tmp155.i, i64 %tmp158166.i, i32 1		; <i32*> [#uses=1]
	store i32 %y.0.reg2mem.0.ph, i32* %tmp171.i, align 4
	%tmp176.i = load i32* getelementptr (%struct.boundart* @_ZN6regobj9bound1arpE, i32 0, i32 1), align 8		; <i32> [#uses=1]
	%tmp177.i = add i32 %tmp176.i, 1		; <i32> [#uses=1]
	store i32 %tmp177.i, i32* getelementptr (%struct.boundart* @_ZN6regobj9bound1arpE, i32 0, i32 1), align 8
	%tmp182.i = load %struct.regmngobj** %tmp95, align 8		; <%struct.regmngobj*> [#uses=2]
	%tmp190.i = getelementptr %struct.regmngobj* %tmp182.i, i32 0, i32 6		; <%struct.regobj***> [#uses=1]
	%tmp191.i = load %struct.regobj*** %tmp190.i, align 8		; <%struct.regobj**> [#uses=1]
	%tmp193.i = getelementptr %struct.regmngobj* %tmp182.i, i32 0, i32 16		; <i32*> [#uses=1]
	%tmp194.i = load i32* %tmp193.i, align 8		; <i32> [#uses=1]
	%tmp196.i = mul i32 %tmp194.i, %y.0.reg2mem.0.ph		; <i32> [#uses=1]
	%tmp198.i = add i32 %tmp196.i, %x.0.reg2mem.0		; <i32> [#uses=1]
	%tmp198199.i = sext i32 %tmp198.i to i64		; <i64> [#uses=1]
	%tmp200.i = getelementptr %struct.regobj** %tmp191.i, i64 %tmp198199.i		; <%struct.regobj**> [#uses=1]
	store %struct.regobj* %this, %struct.regobj** %tmp200.i, align 8
	%tmp207.i = load i32* %tmp10, align 8		; <i32> [#uses=1]
	%tmp208.i = add i32 %tmp207.i, 1		; <i32> [#uses=1]
	store i32 %tmp208.i, i32* %tmp10, align 8
	%tmp165251 = add i32 %x.0.reg2mem.0, 1		; <i32> [#uses=1]
	%tmp169260 = icmp sgt i32 %tmp165251, %x2.0		; <i1> [#uses=1]
	%indvar.next = add i32 %indvar, 1		; <i32> [#uses=1]
	store i32 %val42, i32* @cg_caller_call_site_var, align 4
	store i32 %val31, i32* @cg_caller_id_var, align 4
	store i32 %val44, i32* @cg_caller_call_site_var, align 4
	store i32 %val33, i32* @cg_caller_id_var, align 4
	br i1 %tmp169260, label %bb172, label %bb129

cond_next163:		; preds = %cond_true.i, %cond_true159, %bb129
	%tmp165 = add i32 %x.0.reg2mem.0, 1		; <i32> [#uses=1]
	br label %bb166

bb166:		; preds = %cond_next163, %bb166.preheader
	%x.0 = phi i32 [ %tmp165, %cond_next163 ], [ %x1.0, %bb166.preheader ]		; <i32> [#uses=2]
	%val31 = load i32* @cg_caller_id_var, align 4		; <i32> [#uses=3]
	%val42 = load i32* @cg_caller_call_site_var, align 4		; <i32> [#uses=3]
	store i32 69, i32* @cg_caller_id_var, align 4
	call void @CallEdgeProfiler( i32 %val31, i32 %val42, i32 69 )
	%tmp169 = icmp sgt i32 %x.0, %x2.0		; <i1> [#uses=1]
	store i32 %val42, i32* @cg_caller_call_site_var, align 4
	store i32 %val31, i32* @cg_caller_id_var, align 4
	br i1 %tmp169, label %bb172, label %bb129

bb172:		; preds = %bb166, %cond_next152.i
	%tmp174 = add i32 %y.0.reg2mem.0.ph, 1		; <i32> [#uses=1]
	br label %bb175

bb175:		; preds = %bb172, %entry
	%y2.0 = phi i32 [ %y2.0.reg2mem.0.ph, %bb172 ], [ %tmp84, %entry ]		; <i32> [#uses=2]
	%y.0 = phi i32 [ %tmp174, %bb172 ], [ %y1.0, %entry ]		; <i32> [#uses=2]
	%tmp178 = icmp sgt i32 %y.0, %y2.0		; <i1> [#uses=1]
	br i1 %tmp178, label %bb181, label %bb166.preheader

bb181:		; preds = %bb175, %cond_true119
	%tmp183 = load i32* getelementptr (%struct.boundart* @_ZN6regobj9bound1arpE, i32 0, i32 1), align 16		; <i32> [#uses=2]
	store i32 %tmp183, i32* @_ZN6regobj6boundlE, align 4
	%tmp185 = icmp eq i32 %tmp183, 0		; <i1> [#uses=1]
	%tmp190 = getelementptr %struct.regobj* %this, i32 0, i32 1		; <i8*> [#uses=2]
	br i1 %tmp185, label %cond_false, label %cond_true188

cond_true188:		; preds = %bb181
	store i8 1, i8* %tmp190, align 8
	br label %cond_true209

cond_false:		; preds = %bb181
	store i8 0, i8* %tmp190, align 8
	%tmp194 = load %struct.pointt** getelementptr (%struct.boundart* @_ZN6regobj9bound1arpE, i32 0, i32 0), align 16		; <%struct.pointt*> [#uses=1]
	free %struct.pointt* %tmp194
	%tmp198 = load %struct.pointt** getelementptr (%struct.boundart* @_ZN6regobj9bound2arpE, i32 0, i32 0), align 16		; <%struct.pointt*> [#uses=1]
	free %struct.pointt* %tmp198
	store i32 %val2, i32* @cg_caller_call_site_var, align 4
	store i32 %val, i32* @cg_caller_id_var, align 4
	ret void

cond_true209:		; preds = %cond_false213.critedge, %cond_true188
	%val3 = load i32* @cg_caller_id_var, align 4		; <i32> [#uses=3]
	%val4 = load i32* @cg_caller_call_site_var, align 4		; <i32> [#uses=3]
	store i32 68, i32* @cg_caller_id_var, align 4
	call void @CallEdgeProfiler( i32 %val3, i32 %val4, i32 68 )
	store i32 1, i32* @cg_caller_call_site_var, align 4
	store i32 17, i32* @cg_caller_id_var, align 4
	store i32 0, i32* @cg_caller_call_site_var, align 4
	store i32 68, i32* @cg_caller_id_var, align 4
	tail call fastcc void @_ZN6regobj10makebound2ER9flexarrayI6pointtES3_( %struct.regobj* %this, %struct.boundart* @_ZN6regobj9bound1arpE, %struct.boundart* @_ZN6regobj9bound2arpE )
	%storemerge263 = load i32* getelementptr (%struct.boundart* @_ZN6regobj9bound2arpE, i32 0, i32 1), align 4		; <i32> [#uses=2]
	store i32 %storemerge263, i32* @_ZN6regobj6boundlE, align 4
	%tmp221266 = icmp eq i32 %storemerge263, 0		; <i1> [#uses=1]
	store i32 %val4, i32* @cg_caller_call_site_var, align 4
	store i32 %val3, i32* @cg_caller_id_var, align 4
	br i1 %tmp221266, label %bb224, label %cond_false213.critedge

cond_false213.critedge:		; preds = %cond_true209
	store i32 2, i32* @cg_caller_call_site_var, align 4
	store i32 17, i32* @cg_caller_id_var, align 4
	store i32 1, i32* @cg_caller_call_site_var, align 4
	store i32 68, i32* @cg_caller_id_var, align 4
	tail call fastcc void @_ZN6regobj10makebound2ER9flexarrayI6pointtES3_( %struct.regobj* %this, %struct.boundart* @_ZN6regobj9bound2arpE, %struct.boundart* @_ZN6regobj9bound1arpE )
	%storemerge = load i32* getelementptr (%struct.boundart* @_ZN6regobj9bound1arpE, i32 0, i32 1), align 4		; <i32> [#uses=2]
	store i32 %storemerge, i32* @_ZN6regobj6boundlE, align 4
	%tmp221 = icmp eq i32 %storemerge, 0		; <i1> [#uses=1]
	store i32 %val4, i32* @cg_caller_call_site_var, align 4
	store i32 %val3, i32* @cg_caller_id_var, align 4
	br i1 %tmp221, label %bb224, label %cond_true209

bb224:		; preds = %cond_false213.critedge, %cond_true209
	%tmp226 = load %struct.pointt** getelementptr (%struct.boundart* @_ZN6regobj9bound1arpE, i32 0, i32 0), align 16		; <%struct.pointt*> [#uses=1]
	free %struct.pointt* %tmp226
	%tmp231 = load %struct.pointt** getelementptr (%struct.boundart* @_ZN6regobj9bound2arpE, i32 0, i32 0), align 16		; <%struct.pointt*> [#uses=1]
	free %struct.pointt* %tmp231
	store i32 %val2, i32* @cg_caller_call_site_var, align 4
	store i32 %val, i32* @cg_caller_id_var, align 4
	ret void
}

define internal fastcc void @_ZN9regmngobj13createregionsEi(i32 %regionl) {
entry:
	%val = load i32* @cg_caller_id_var, align 4		; <i32> [#uses=2]
	%val2 = load i32* @cg_caller_call_site_var, align 4		; <i32> [#uses=2]
	store i32 18, i32* @cg_caller_id_var, align 4
	call void @CallEdgeProfiler( i32 %val, i32 %val2, i32 18 )
	%x.i = alloca i32		; <i32*> [#uses=4]
	%y.i = alloca i32		; <i32*> [#uses=4]
	%x413 = alloca i32		; <i32*> [#uses=2]
	%y414 = alloca i32		; <i32*> [#uses=2]
	%x785 = alloca i32		; <i32*> [#uses=2]
	%y786 = alloca i32		; <i32*> [#uses=2]
	%tmp10 = load i32* getelementptr (%struct.regmngobj* @regmng, i32 0, i32 16), align 8		; <i32> [#uses=1]
	%tmp13 = load i32* getelementptr (%struct.regmngobj* @regmng, i32 0, i32 17), align 8		; <i32> [#uses=1]
	%tmp14 = mul i32 %tmp13, %tmp10		; <i32> [#uses=1]
	%tmp1415 = sext i32 %tmp14 to i64		; <i64> [#uses=1]
	%tmp16 = shl i64 %tmp1415, 3		; <i64> [#uses=1]
	%tmp19 = load %struct.regobj*** getelementptr (%struct.regmngobj* @regmng, i32 0, i32 6), align 8		; <%struct.regobj**> [#uses=1]
	%tmp1920 = bitcast %struct.regobj** %tmp19 to i8*		; <i8*> [#uses=1]
	store i32 0, i32* @cg_caller_call_site_var, align 4
	store i32 18, i32* @cg_caller_id_var, align 4
	call void @llvm.memset.i64( i8* %tmp1920, i8 0, i64 %tmp16, i32 8 )
	%tmp22 = icmp slt i32 %regionl, 6		; <i1> [#uses=1]
	%regionl_addr.0 = select i1 %tmp22, i32 6, i32 %regionl		; <i32> [#uses=2]
	%tmp26 = load i32* getelementptr (%struct.regmngobj* @regmng, i32 0, i32 16), align 8		; <i32> [#uses=1]
	%tmp27 = sdiv i32 %tmp26, 5		; <i32> [#uses=2]
	%tmp29 = icmp slt i32 %tmp27, %regionl_addr.0		; <i1> [#uses=1]
	%regionl_addr.1 = select i1 %tmp29, i32 %tmp27, i32 %regionl_addr.0		; <i32> [#uses=1]
	%tmp3839 = sitofp i32 %regionl_addr.1 to float		; <float> [#uses=1]
	%tmp40 = fdiv float %tmp3839, 2.000000e+01		; <float> [#uses=4]
	store float %tmp40, float* getelementptr (%struct.regmngobj* @regmng, i32 0, i32 11), align 8
	%tmp46 = mul float %tmp40, 1.000000e+01		; <float> [#uses=1]
	%tmp4647 = fptosi float %tmp46 to i32		; <i32> [#uses=3]
	store i32 %tmp4647, i32* getelementptr (%struct.regmngobj* @regmng, i32 0, i32 9), align 8
	%tmp56 = mul i32 %tmp4647, %tmp4647		; <i32> [#uses=1]
	store i32 %tmp56, i32* getelementptr (%struct.regmngobj* @regmng, i32 0, i32 10), align 8
	%tmp23454.i = malloc [16 x %struct.regboundobj]		; <[16 x %struct.regboundobj]*> [#uses=1]
	%tmp23454.sub.i = getelementptr [16 x %struct.regboundobj]* %tmp23454.i, i32 0, i32 0		; <%struct.regboundobj*> [#uses=1]
	%tmp30.i = load i32* getelementptr (%struct.regmngobj* @regmng, i32 0, i32 12), align 8		; <i32> [#uses=2]
	%tmp3031.i = sitofp i32 %tmp30.i to float		; <float> [#uses=1]
	%tmp32.i = fdiv float %tmp3031.i, 6.200000e+02		; <float> [#uses=1]
	%tmp33.i = mul float %tmp32.i, 3.400000e+01		; <float> [#uses=1]
	%tmp37.i = fdiv float %tmp33.i, %tmp40		; <float> [#uses=1]
	%tmp41.i = add float %tmp37.i, 5.000000e-01		; <float> [#uses=1]
	%tmp4142.i = fptosi float %tmp41.i to i32		; <i32> [#uses=3]
	%tmp48.i = load i32* getelementptr (%struct.regmngobj* @regmng, i32 0, i32 13), align 8		; <i32> [#uses=2]
	%tmp4849.i = sitofp i32 %tmp48.i to float		; <float> [#uses=1]
	%tmp50.i = fdiv float %tmp4849.i, 3.090000e+02		; <float> [#uses=1]
	%tmp51.i = mul float %tmp50.i, 2.000000e+01		; <float> [#uses=1]
	%tmp55.i = fdiv float %tmp51.i, %tmp40		; <float> [#uses=1]
	%tmp59.i = add float %tmp55.i, 5.000000e-01		; <float> [#uses=1]
	%tmp5960.i = fptosi float %tmp59.i to i32		; <i32> [#uses=1]
	%tmp67.i = add i32 %tmp30.i, 1		; <i32> [#uses=1]
	%tmp6768.i = sitofp i32 %tmp67.i to float		; <float> [#uses=1]
	%tmp6970.i = sitofp i32 %tmp4142.i to float		; <float> [#uses=1]
	%tmp71.i = fdiv float %tmp6768.i, %tmp6970.i		; <float> [#uses=1]
	%tmp75.i = add float %tmp71.i, 5.000000e-01		; <float> [#uses=1]
	%tmp7576.i = fptosi float %tmp75.i to i32		; <i32> [#uses=4]
	%tmp83.i = add i32 %tmp48.i, 1		; <i32> [#uses=1]
	%tmp8384.i = sitofp i32 %tmp83.i to float		; <float> [#uses=1]
	%tmp8586.i = sitofp i32 %tmp5960.i to float		; <float> [#uses=2]
	%tmp87.i = fdiv float %tmp8384.i, %tmp8586.i		; <float> [#uses=1]
	%tmp8788.i = fpext float %tmp87.i to double		; <double> [#uses=1]
	%tmp89.i = mul double %tmp8788.i, 0x3FFBB67AE8584CAA		; <double> [#uses=1]
	%tmp90.i = mul double %tmp89.i, 5.000000e-01		; <double> [#uses=1]
	%tmp9091.i = fptrunc double %tmp90.i to float		; <float> [#uses=1]
	%tmp95.i = add float %tmp9091.i, 5.000000e-01		; <float> [#uses=1]
	%tmp9596.i = fptosi float %tmp95.i to i32		; <i32> [#uses=2]
	%tmp116.i = sdiv i32 %tmp9596.i, 2		; <i32> [#uses=1]
	%tmp344.i = add i32 %tmp4142.i, -1		; <i32> [#uses=1]
	%tmp366.i = mul float %tmp8586.i, 2.000000e+00		; <float> [#uses=1]
	%tmp366367.i = fpext float %tmp366.i to double		; <double> [#uses=1]
	%tmp368.i = fdiv double %tmp366367.i, 0x3FFBB67AE8584CAA		; <double> [#uses=1]
	%tmp368369.i = fptrunc double %tmp368.i to float		; <float> [#uses=1]
	%tmp373.i = add float %tmp368369.i, 5.000000e-01		; <float> [#uses=1]
	%tmp373374.i = fptosi float %tmp373.i to i32		; <i32> [#uses=1]
	%tmp378.i = add i32 %tmp373374.i, 3		; <i32> [#uses=1]
	br label %bb100.i

bb100.i:		; preds = %cond_next363.i, %entry
	%rboundarp.2.2.i = phi i32 [ 16, %entry ], [ %rboundarp.2.1.i, %cond_next363.i ]		; <i32> [#uses=6]
	%rboundarp.1.1.i = phi i32 [ 0, %entry ], [ %rboundarp.1.0.i, %cond_next363.i ]		; <i32> [#uses=4]
	%rboundarp.0.2.i = phi %struct.regboundobj* [ %tmp23454.sub.i, %entry ], [ %rboundarp.0.1.i, %cond_next363.i ]		; <%struct.regboundobj*> [#uses=5]
	%i1.0.i = phi i32 [ 0, %entry ], [ %i1.1.i, %cond_next363.i ]		; <i32> [#uses=3]
	%i2.1.i = phi i32 [ 0, %entry ], [ %i2.0.i, %cond_next363.i ]		; <i32> [#uses=6]
	%val3 = load i32* @cg_caller_id_var, align 4		; <i32> [#uses=2]
	%val4 = load i32* @cg_caller_call_site_var, align 4		; <i32> [#uses=2]
	store i32 71, i32* @cg_caller_id_var, align 4
	call void @CallEdgeProfiler( i32 %val3, i32 %val4, i32 71 )
	%tmp102103452.i = and i32 %i2.1.i, 1		; <i32> [#uses=1]
	%toBool.i = icmp eq i32 %tmp102103452.i, 0		; <i1> [#uses=2]
	br i1 %toBool.i, label %cond_false.i, label %cond_true.i

cond_true.i:		; preds = %bb100.i
	%tmp106.i = mul i32 %i1.0.i, %tmp7576.i		; <i32> [#uses=1]
	br label %cond_next.i

cond_false.i:		; preds = %bb100.i
	%tmp110.i = sdiv i32 %tmp7576.i, 2		; <i32> [#uses=1]
	%tmp113.i = mul i32 %i1.0.i, %tmp7576.i		; <i32> [#uses=1]
	br label %cond_next.i

cond_next.i:		; preds = %cond_false.i, %cond_true.i
	%tmp110.pn.i = phi i32 [ %tmp110.i, %cond_false.i ], [ %tmp106.i, %cond_true.i ]		; <i32> [#uses=1]
	%tmp113.pn.i = phi i32 [ %tmp113.i, %cond_false.i ], [ %tmp7576.i, %cond_true.i ]		; <i32> [#uses=1]
	%xx.0.i = add i32 %tmp113.pn.i, %tmp110.pn.i		; <i32> [#uses=1]
	%tmp119.i = mul i32 %i2.1.i, %tmp9596.i		; <i32> [#uses=1]
	%tmp120.i = add i32 %tmp116.i, %tmp119.i		; <i32> [#uses=1]
	store i32 1, i32* @cg_caller_call_site_var, align 4
	store i32 18, i32* @cg_caller_id_var, align 4
	store i32 0, i32* @cg_caller_call_site_var, align 4
	store i32 71, i32* @cg_caller_id_var, align 4
	%tmp124.i = call fastcc i8 @_ZN9regmngobj13findfreeplaceEiiRiS0_( i32 %xx.0.i, i32 %tmp120.i, i32* %x.i, i32* %y.i ) zeroext 		; <i8> [#uses=1]
	%tmp126.i = icmp eq i8 %tmp124.i, 0		; <i1> [#uses=1]
	br i1 %tmp126.i, label %next.i, label %cond_false131.i

cond_false131.i:		; preds = %cond_next.i
	%tmp132.i = load i32* %y.i, align 4		; <i32> [#uses=1]
	%tmp133.i = load i32* %x.i, align 4		; <i32> [#uses=1]
	%tmp141.i = load %struct.regobj*** getelementptr (%struct.regmngobj* @regmng, i32 0, i32 6), align 8		; <%struct.regobj**> [#uses=1]
	%tmp144.i = load i32* getelementptr (%struct.regmngobj* @regmng, i32 0, i32 16), align 8		; <i32> [#uses=1]
	%tmp146.i = mul i32 %tmp144.i, %tmp132.i		; <i32> [#uses=1]
	%tmp148.i = add i32 %tmp146.i, %tmp133.i		; <i32> [#uses=1]
	%tmp148149.i = sext i32 %tmp148.i to i64		; <i64> [#uses=1]
	%tmp150.i = getelementptr %struct.regobj** %tmp141.i, i64 %tmp148149.i		; <%struct.regobj**> [#uses=1]
	%tmp154.i = load %struct.regobj** %tmp150.i, align 8		; <%struct.regobj*> [#uses=1]
	%tmp155.i = icmp eq %struct.regobj* %tmp154.i, null		; <i1> [#uses=1]
	br i1 %tmp155.i, label %cond_next161.i, label %next.i

cond_next161.i:		; preds = %cond_false131.i
	store i32 2, i32* @cg_caller_call_site_var, align 4
	store i32 18, i32* @cg_caller_id_var, align 4
	store i32 2, i32* @cg_caller_call_site_var, align 4
	store i32 71, i32* @cg_caller_id_var, align 4
	%tmp162.i = call i8* @_Znwm( i64 56 )		; <i8*> [#uses=2]
	%tmp162163.i = bitcast i8* %tmp162.i to %struct.regobj*		; <%struct.regobj*> [#uses=9]
	%tmp171.i = getelementptr %struct.regobj* %tmp162163.i, i32 0, i32 3		; <%struct.regmngobj**> [#uses=1]
	store %struct.regmngobj* @regmng, %struct.regmngobj** %tmp171.i, align 8
	%tmp182.i = load i32* getelementptr (%struct.regmngobj* @regmng, i32 0, i32 18, i32 4), align 8		; <i32> [#uses=1]
	%tmp185.i = load i32* getelementptr (%struct.regmngobj* @regmng, i32 0, i32 18, i32 5), align 8		; <i32> [#uses=1]
	%tmp186.i = icmp eq i32 %tmp182.i, %tmp185.i		; <i1> [#uses=1]
	br i1 %tmp186.i, label %cond_true189.i, label %cond_next191.i

cond_true189.i:		; preds = %cond_next161.i
	store i32 3, i32* @cg_caller_call_site_var, align 4
	store i32 18, i32* @cg_caller_id_var, align 4
	store i32 3, i32* @cg_caller_call_site_var, align 4
	store i32 71, i32* @cg_caller_id_var, align 4
	call fastcc void @_ZN15largesolidarrayIP6regobjE8doublingEv( )
	br label %cond_next191.i

cond_next191.i:		; preds = %cond_true189.i, %cond_next161.i
	%tmp194.i = load %struct.regobj*** getelementptr (%struct.regmngobj* @regmng, i32 0, i32 18, i32 0), align 8		; <%struct.regobj**> [#uses=1]
	%tmp197.i = load i32* getelementptr (%struct.regmngobj* @regmng, i32 0, i32 18, i32 4), align 8		; <i32> [#uses=1]
	%tmp197200.i = sext i32 %tmp197.i to i64		; <i64> [#uses=1]
	%tmp201.i = getelementptr %struct.regobj** %tmp194.i, i64 %tmp197200.i		; <%struct.regobj**> [#uses=1]
	store %struct.regobj* %tmp162163.i, %struct.regobj** %tmp201.i, align 8
	%tmp208.i = load i32* getelementptr (%struct.regmngobj* @regmng, i32 0, i32 18, i32 1, i32 1), align 8		; <i32> [#uses=1]
	%tmp209.i = add i32 %tmp208.i, -1		; <i32> [#uses=2]
	store i32 %tmp209.i, i32* getelementptr (%struct.regmngobj* @regmng, i32 0, i32 18, i32 1, i32 1), align 8
	%tmp214.i = load i32** getelementptr (%struct.regmngobj* @regmng, i32 0, i32 18, i32 1, i32 0), align 8		; <i32*> [#uses=1]
	%tmp217218.i = sext i32 %tmp209.i to i64		; <i64> [#uses=1]
	%tmp219.i = getelementptr i32* %tmp214.i, i64 %tmp217218.i		; <i32*> [#uses=1]
	%tmp220.i = load i32* %tmp219.i, align 4		; <i32> [#uses=3]
	%tmp227.i = load i32** getelementptr (%struct.regmngobj* @regmng, i32 0, i32 18, i32 2, i32 0), align 8		; <i32*> [#uses=1]
	%tmp230.i = load i32* getelementptr (%struct.regmngobj* @regmng, i32 0, i32 18, i32 4), align 8		; <i32> [#uses=1]
	%tmp231232.i = sext i32 %tmp220.i to i64		; <i64> [#uses=1]
	%tmp233.i = getelementptr i32* %tmp227.i, i64 %tmp231232.i		; <i32*> [#uses=1]
	store i32 %tmp230.i, i32* %tmp233.i, align 4
	%tmp237.i = load i32** getelementptr (%struct.regmngobj* @regmng, i32 0, i32 18, i32 3, i32 0), align 8		; <i32*> [#uses=1]
	%tmp240.i = load i32* getelementptr (%struct.regmngobj* @regmng, i32 0, i32 18, i32 4), align 8		; <i32> [#uses=1]
	%tmp240241.i = sext i32 %tmp240.i to i64		; <i64> [#uses=1]
	%tmp242.i = getelementptr i32* %tmp237.i, i64 %tmp240241.i		; <i32*> [#uses=1]
	store i32 %tmp220.i, i32* %tmp242.i, align 4
	%tmp246.i = load i32* getelementptr (%struct.regmngobj* @regmng, i32 0, i32 18, i32 4), align 8		; <i32> [#uses=1]
	%tmp247.i = add i32 %tmp246.i, 1		; <i32> [#uses=1]
	store i32 %tmp247.i, i32* getelementptr (%struct.regmngobj* @regmng, i32 0, i32 18, i32 4), align 8
	%tmp253.i = bitcast i8* %tmp162.i to i32*		; <i32*> [#uses=1]
	store i32 %tmp220.i, i32* %tmp253.i, align 8
	%tmp5.i.i = getelementptr %struct.regobj* %tmp162163.i, i32 0, i32 9, i32 2		; <i32*> [#uses=1]
	store i32 4, i32* %tmp5.i.i, align 8
	%tmp8.i.i = getelementptr %struct.regobj* %tmp162163.i, i32 0, i32 9, i32 1		; <i32*> [#uses=1]
	store i32 0, i32* %tmp8.i.i, align 8
	%tmp1827.i.i = malloc [4 x %struct.regobj*]		; <[4 x %struct.regobj*]*> [#uses=1]
	%tmp1827.sub.i.i = getelementptr [4 x %struct.regobj*]* %tmp1827.i.i, i32 0, i32 0		; <%struct.regobj**> [#uses=1]
	%tmp23.i.i = getelementptr %struct.regobj* %tmp162163.i, i32 0, i32 9, i32 0		; <%struct.regobj***> [#uses=1]
	store %struct.regobj** %tmp1827.sub.i.i, %struct.regobj*** %tmp23.i.i, align 8
	%tmp25.i.i = getelementptr %struct.regobj* %tmp162163.i, i32 0, i32 1		; <i8*> [#uses=1]
	store i8 1, i8* %tmp25.i.i, align 8
	%tmp259.i = load i32* %x.i, align 4		; <i32> [#uses=1]
	%tmp261.i = getelementptr %struct.regobj* %tmp162163.i, i32 0, i32 5, i32 0		; <i32*> [#uses=1]
	store i32 %tmp259.i, i32* %tmp261.i, align 8
	%tmp263.i = load i32* %y.i, align 4		; <i32> [#uses=1]
	%tmp265.i = getelementptr %struct.regobj* %tmp162163.i, i32 0, i32 5, i32 1		; <i32*> [#uses=1]
	store i32 %tmp263.i, i32* %tmp265.i, align 8
	%tmp271.i = icmp eq i32 %rboundarp.1.1.i, %rboundarp.2.2.i		; <i1> [#uses=1]
	br i1 %tmp271.i, label %cond_true274.i, label %cond_next314.i

cond_true274.i:		; preds = %cond_next191.i
	%tmp278.i = shl i32 %rboundarp.2.2.i, 1		; <i32> [#uses=2]
	%tmp288.i = malloc %struct.regboundobj, i32 %tmp278.i		; <%struct.regboundobj*> [#uses=2]
	%tmpcast.i = bitcast %struct.regboundobj* %tmp288.i to i8*		; <i8*> [#uses=1]
	%tmp297298.i = sext i32 %rboundarp.2.2.i to i64		; <i64> [#uses=1]
	%tmp299.i = mul i64 %tmp297298.i, 112		; <i64> [#uses=1]
	%tmp301304.i = bitcast %struct.regboundobj* %rboundarp.0.2.i to i8*		; <i8*> [#uses=1]
	store i32 4, i32* @cg_caller_call_site_var, align 4
	store i32 18, i32* @cg_caller_id_var, align 4
	store i32 4, i32* @cg_caller_call_site_var, align 4
	store i32 71, i32* @cg_caller_id_var, align 4
	call void @llvm.memcpy.i64( i8* %tmpcast.i, i8* %tmp301304.i, i64 %tmp299.i, i32 8 )
	free %struct.regboundobj* %rboundarp.0.2.i
	br label %cond_next314.i

cond_next314.i:		; preds = %cond_true274.i, %cond_next191.i
	%rboundarp.2.0.i = phi i32 [ %tmp278.i, %cond_true274.i ], [ %rboundarp.2.2.i, %cond_next191.i ]		; <i32> [#uses=1]
	%rboundarp.0.0.i = phi %struct.regboundobj* [ %tmp288.i, %cond_true274.i ], [ %rboundarp.0.2.i, %cond_next191.i ]		; <%struct.regboundobj*> [#uses=3]
	%tmp317.i = add i32 %rboundarp.1.1.i, 1		; <i32> [#uses=2]
	%tmp322323.i = sext i32 %tmp317.i to i64		; <i64> [#uses=1]
	%tmp324.sum.i = add i64 %tmp322323.i, -1		; <i64> [#uses=2]
	%tmp325.i = getelementptr %struct.regboundobj* %rboundarp.0.0.i, i64 %tmp324.sum.i		; <%struct.regboundobj*> [#uses=1]
	%tmp330.i = getelementptr %struct.regboundobj* %rboundarp.0.0.i, i64 %tmp324.sum.i, i32 16		; <i8*> [#uses=1]
	store i8 1, i8* %tmp330.i, align 8
	%tmp332.i = load i32* %y.i, align 4		; <i32> [#uses=1]
	%tmp333.i = load i32* %x.i, align 4		; <i32> [#uses=1]
	store i32 5, i32* @cg_caller_call_site_var, align 4
	store i32 18, i32* @cg_caller_id_var, align 4
	store i32 1, i32* @cg_caller_call_site_var, align 4
	store i32 71, i32* @cg_caller_id_var, align 4
	call fastcc void @_ZN11regboundobj9firststepEiiP6regobjP9regmngobj( %struct.regboundobj* %tmp325.i, i32 %tmp333.i, i32 %tmp332.i, %struct.regobj* %tmp162163.i )
	br label %next.i

next.i:		; preds = %cond_next314.i, %cond_false131.i, %cond_next.i
	%rboundarp.2.1.i = phi i32 [ %rboundarp.2.0.i, %cond_next314.i ], [ %rboundarp.2.2.i, %cond_next.i ], [ %rboundarp.2.2.i, %cond_false131.i ]		; <i32> [#uses=1]
	%rboundarp.1.0.i = phi i32 [ %tmp317.i, %cond_next314.i ], [ %rboundarp.1.1.i, %cond_next.i ], [ %rboundarp.1.1.i, %cond_false131.i ]		; <i32> [#uses=4]
	%rboundarp.0.1.i = phi %struct.regboundobj* [ %rboundarp.0.0.i, %cond_next314.i ], [ %rboundarp.0.2.i, %cond_next.i ], [ %rboundarp.0.2.i, %cond_false131.i ]		; <%struct.regboundobj*> [#uses=5]
	%tmp337.i = add i32 %i1.0.i, 1		; <i32> [#uses=4]
	br i1 %toBool.i, label %cond_false353.i, label %cond_true342.i

cond_true342.i:		; preds = %next.i
	%tmp346.i = icmp eq i32 %tmp344.i, %tmp337.i		; <i1> [#uses=1]
	br i1 %tmp346.i, label %cond_true349.i, label %cond_next363.i

cond_true349.i:		; preds = %cond_true342.i
	%tmp351.i = add i32 %i2.1.i, 1		; <i32> [#uses=1]
	br label %cond_next363.i

cond_false353.i:		; preds = %next.i
	%tmp356.i = icmp eq i32 %tmp337.i, %tmp4142.i		; <i1> [#uses=1]
	br i1 %tmp356.i, label %cond_true359.i, label %cond_next363.i

cond_true359.i:		; preds = %cond_false353.i
	%tmp361.i = add i32 %i2.1.i, 1		; <i32> [#uses=1]
	br label %cond_next363.i

cond_next363.i:		; preds = %cond_true359.i, %cond_false353.i, %cond_true349.i, %cond_true342.i
	%i1.1.i = phi i32 [ 0, %cond_true359.i ], [ 0, %cond_true349.i ], [ %tmp337.i, %cond_true342.i ], [ %tmp337.i, %cond_false353.i ]		; <i32> [#uses=1]
	%i2.0.i = phi i32 [ %tmp361.i, %cond_true359.i ], [ %tmp351.i, %cond_true349.i ], [ %i2.1.i, %cond_true342.i ], [ %i2.1.i, %cond_false353.i ]		; <i32> [#uses=2]
	%tmp380.i = icmp sgt i32 %tmp378.i, %i2.0.i		; <i1> [#uses=1]
	store i32 %val4, i32* @cg_caller_call_site_var, align 4
	store i32 %val3, i32* @cg_caller_id_var, align 4
	br i1 %tmp380.i, label %bb100.i, label %bb407.i

bb386.i:		; preds = %bb407.i
	%tmp391392.i = sext i32 %i.0.i to i64		; <i64> [#uses=1]
	%tmp393.i = getelementptr %struct.regboundobj* %rboundarp.0.1.i, i64 %tmp391392.i		; <%struct.regboundobj*> [#uses=1]
	store i32 6, i32* @cg_caller_call_site_var, align 4
	store i32 18, i32* @cg_caller_id_var, align 4
	store i32 0, i32* @cg_caller_call_site_var, align 4
	store i32 72, i32* @cg_caller_id_var, align 4
	%tmp397.i = call fastcc i8 @_ZN11regboundobj4stepEv( %struct.regboundobj* %tmp393.i ) zeroext 		; <i8> [#uses=1]
	%tmp399.i = icmp eq i8 %tmp397.i, 1		; <i1> [#uses=1]
	%fldone.0.i = select i1 %tmp399.i, i8 0, i8 %fldone.1.i		; <i8> [#uses=1]
	%tmp406.i = add i32 %i.0.i, 1		; <i32> [#uses=1]
	br label %bb407.i

bb407.i:		; preds = %bb414.i, %bb386.i, %cond_next363.i
	%i.0.i = phi i32 [ %tmp406.i, %bb386.i ], [ 0, %bb414.i ], [ 0, %cond_next363.i ]		; <i32> [#uses=3]
	%fldone.1.i = phi i8 [ %fldone.0.i, %bb386.i ], [ 1, %bb414.i ], [ 1, %cond_next363.i ]		; <i8> [#uses=2]
	%val31 = load i32* @cg_caller_id_var, align 4		; <i32> [#uses=2]
	%val42 = load i32* @cg_caller_call_site_var, align 4		; <i32> [#uses=2]
	store i32 72, i32* @cg_caller_id_var, align 4
	call void @CallEdgeProfiler( i32 %val31, i32 %val42, i32 72 )
	%tmp411.i = icmp sgt i32 %rboundarp.1.0.i, %i.0.i		; <i1> [#uses=1]
	br i1 %tmp411.i, label %bb386.i, label %bb414.i

bb414.i:		; preds = %bb407.i
	%tmp417.i = icmp eq i8 %fldone.1.i, 0		; <i1> [#uses=1]
	store i32 %val42, i32* @cg_caller_call_site_var, align 4
	store i32 %val31, i32* @cg_caller_id_var, align 4
	br i1 %tmp417.i, label %bb407.i, label %bb435.loopexit.i

bb421.i:		; preds = %bb435.loopexit.i, %bb421.i
	%i.1455.i = phi i32 [ %tmp434.i, %bb421.i ], [ 0, %bb435.loopexit.i ]		; <i32> [#uses=2]
	%val33 = load i32* @cg_caller_id_var, align 4		; <i32> [#uses=2]
	%val44 = load i32* @cg_caller_call_site_var, align 4		; <i32> [#uses=2]
	store i32 73, i32* @cg_caller_id_var, align 4
	call void @CallEdgeProfiler( i32 %val33, i32 %val44, i32 73 )
	%tmp427428.i = sext i32 %i.1455.i to i64		; <i64> [#uses=2]
	%tmp4.i.i = getelementptr %struct.regboundobj* %rboundarp.0.1.i, i64 %tmp427428.i, i32 0, i32 0		; <%struct.pointt**> [#uses=1]
	%tmp5.i1.i = load %struct.pointt** %tmp4.i.i, align 8		; <%struct.pointt*> [#uses=1]
	free %struct.pointt* %tmp5.i1.i
	%tmp12.i.i = getelementptr %struct.regboundobj* %rboundarp.0.1.i, i64 %tmp427428.i, i32 1, i32 0		; <%struct.pointt**> [#uses=1]
	%tmp13.i.i = load %struct.pointt** %tmp12.i.i, align 8		; <%struct.pointt*> [#uses=1]
	free %struct.pointt* %tmp13.i.i
	%tmp434.i = add i32 %i.1455.i, 1		; <i32> [#uses=2]
	%tmp439.i = icmp sgt i32 %rboundarp.1.0.i, %tmp434.i		; <i1> [#uses=1]
	store i32 %val44, i32* @cg_caller_call_site_var, align 4
	store i32 %val33, i32* @cg_caller_id_var, align 4
	br i1 %tmp439.i, label %bb421.i, label %_ZN9regmngobj13defineregionsEv.exit

bb435.loopexit.i:		; preds = %bb414.i
	%tmp439456.i = icmp sgt i32 %rboundarp.1.0.i, 0		; <i1> [#uses=1]
	br i1 %tmp439456.i, label %bb421.i, label %_ZN9regmngobj13defineregionsEv.exit

_ZN9regmngobj13defineregionsEv.exit:		; preds = %bb435.loopexit.i, %bb421.i
	free %struct.regboundobj* %rboundarp.0.1.i
	%tmp6.i = load float* getelementptr (%struct.regmngobj* @regmng, i32 0, i32 11), align 8		; <float> [#uses=1]
	%tmp67.i1 = fpext float %tmp6.i to double		; <double> [#uses=2]
	%tmp8.i = mul double %tmp67.i1, 1.070000e+02		; <double> [#uses=1]
	%tmp13.i = mul double %tmp8.i, %tmp67.i1		; <double> [#uses=1]
	%tmp1314.i = fptosi double %tmp13.i to i32		; <i32> [#uses=1]
	%tmp37131.i = load i32* getelementptr (%struct.regmngobj* @regmng, i32 0, i32 18, i32 4), align 8		; <i32> [#uses=2]
	%tmp39133.i = icmp sgt i32 %tmp37131.i, 0		; <i1> [#uses=1]
	br i1 %tmp39133.i, label %bb.i, label %bb103.preheader.i

bb.i:		; preds = %bb.i, %_ZN9regmngobj13defineregionsEv.exit
	%i.0.reg2mem.0.i = phi i32 [ %tmp32.i3, %bb.i ], [ 0, %_ZN9regmngobj13defineregionsEv.exit ]		; <i32> [#uses=2]
	%val35 = load i32* @cg_caller_id_var, align 4		; <i32> [#uses=2]
	%val46 = load i32* @cg_caller_call_site_var, align 4		; <i32> [#uses=2]
	store i32 74, i32* @cg_caller_id_var, align 4
	call void @CallEdgeProfiler( i32 %val35, i32 %val46, i32 74 )
	%tmp22.i = load %struct.regobj*** getelementptr (%struct.regmngobj* @regmng, i32 0, i32 18, i32 0), align 8		; <%struct.regobj**> [#uses=1]
	%tmp2324.i = sext i32 %i.0.reg2mem.0.i to i64		; <i64> [#uses=1]
	%tmp25.i = getelementptr %struct.regobj** %tmp22.i, i64 %tmp2324.i		; <%struct.regobj**> [#uses=1]
	%tmp29.i = load %struct.regobj** %tmp25.i, align 8		; <%struct.regobj*> [#uses=1]
	%tmp30.i2 = getelementptr %struct.regobj* %tmp29.i, i32 0, i32 2		; <i8*> [#uses=1]
	store i8 1, i8* %tmp30.i2, align 8
	%tmp32.i3 = add i32 %i.0.reg2mem.0.i, 1		; <i32> [#uses=2]
	%tmp37.i4 = load i32* getelementptr (%struct.regmngobj* @regmng, i32 0, i32 18, i32 4), align 8		; <i32> [#uses=2]
	%tmp39.i = icmp sgt i32 %tmp37.i4, %tmp32.i3		; <i1> [#uses=1]
	store i32 %val46, i32* @cg_caller_call_site_var, align 4
	store i32 %val35, i32* @cg_caller_id_var, align 4
	br i1 %tmp39.i, label %bb.i, label %bb103.preheader.i

bb42.i:		; preds = %bb103.preheader.i, %cond_next.i10
	%i.1134.i = phi i32 [ %tmp102.i, %cond_next.i10 ], [ 0, %bb103.preheader.i ]		; <i32> [#uses=2]
	%val37 = load i32* @cg_caller_id_var, align 4		; <i32> [#uses=2]
	%val48 = load i32* @cg_caller_call_site_var, align 4		; <i32> [#uses=2]
	store i32 75, i32* @cg_caller_id_var, align 4
	call void @CallEdgeProfiler( i32 %val37, i32 %val48, i32 75 )
	%tmp51.i5 = load %struct.regobj*** getelementptr (%struct.regmngobj* @regmng, i32 0, i32 18, i32 0), align 8		; <%struct.regobj**> [#uses=1]
	%tmp5253.i = sext i32 %i.1134.i to i64		; <i64> [#uses=2]
	%tmp54.i = getelementptr %struct.regobj** %tmp51.i5, i64 %tmp5253.i		; <%struct.regobj**> [#uses=1]
	%tmp58.i = load %struct.regobj** %tmp54.i, align 8		; <%struct.regobj*> [#uses=2]
	%tmp59.i6 = getelementptr %struct.regobj* %tmp58.i, i32 0, i32 4		; <i32*> [#uses=1]
	%tmp60.i = load i32* %tmp59.i6, align 8		; <i32> [#uses=1]
	%tmp62.i = icmp slt i32 %tmp60.i, %tmp1314.i		; <i1> [#uses=1]
	br i1 %tmp62.i, label %cond_true.i9, label %cond_next.i10

cond_true.i9:		; preds = %bb42.i
	%tmp83.i7 = getelementptr %struct.regobj* %tmp58.i, i32 0, i32 2		; <i8*> [#uses=1]
	store i8 0, i8* %tmp83.i7, align 8
	%tmp92.i = load %struct.regobj*** getelementptr (%struct.regmngobj* @regmng, i32 0, i32 18, i32 0), align 8		; <%struct.regobj**> [#uses=1]
	%tmp95.i8 = getelementptr %struct.regobj** %tmp92.i, i64 %tmp5253.i		; <%struct.regobj**> [#uses=1]
	%tmp99.i = load %struct.regobj** %tmp95.i8, align 8		; <%struct.regobj*> [#uses=1]
	%tmp100.i = getelementptr %struct.regobj* %tmp99.i, i32 0, i32 1		; <i8*> [#uses=1]
	store i8 0, i8* %tmp100.i, align 8
	br label %cond_next.i10

cond_next.i10:		; preds = %cond_true.i9, %bb42.i
	%tmp102.i = add i32 %i.1134.i, 1		; <i32> [#uses=2]
	%tmp107.i = load i32* getelementptr (%struct.regmngobj* @regmng, i32 0, i32 18, i32 4), align 8		; <i32> [#uses=1]
	%tmp109.i = icmp sgt i32 %tmp107.i, %tmp102.i		; <i1> [#uses=1]
	store i32 %val48, i32* @cg_caller_call_site_var, align 4
	store i32 %val37, i32* @cg_caller_id_var, align 4
	br i1 %tmp109.i, label %bb42.i, label %_ZN9regmngobj14enlargeregionsEv.exit

bb103.preheader.i:		; preds = %bb.i, %_ZN9regmngobj13defineregionsEv.exit
	%tmp107136.rle.i = phi i32 [ %tmp37131.i, %_ZN9regmngobj13defineregionsEv.exit ], [ %tmp37.i4, %bb.i ]		; <i32> [#uses=1]
	%tmp109137.i = icmp sgt i32 %tmp107136.rle.i, 0		; <i1> [#uses=1]
	br i1 %tmp109137.i, label %bb42.i, label %_ZN9regmngobj14enlargeregionsEv.exit

_ZN9regmngobj14enlargeregionsEv.exit:		; preds = %bb103.preheader.i, %cond_next.i10
	store i32 7, i32* @cg_caller_call_site_var, align 4
	store i32 18, i32* @cg_caller_id_var, align 4
	call fastcc void @_ZN9regmngobj13deleteregionsEv( ) nounwind 
	%tmp116.i11 = load i32* getelementptr (%struct.regmngobj* @regmng, i32 0, i32 16), align 8		; <i32> [#uses=1]
	%tmp119.i12 = load i32* getelementptr (%struct.regmngobj* @regmng, i32 0, i32 17), align 8		; <i32> [#uses=1]
	%tmp120.i13 = mul i32 %tmp119.i12, %tmp116.i11		; <i32> [#uses=1]
	%tmp120121.i = sext i32 %tmp120.i13 to i64		; <i64> [#uses=1]
	%tmp122.i = shl i64 %tmp120121.i, 3		; <i64> [#uses=1]
	%tmp125.i = load %struct.regobj*** getelementptr (%struct.regmngobj* @regmng, i32 0, i32 6), align 8		; <%struct.regobj**> [#uses=1]
	%tmp125126.i = bitcast %struct.regobj** %tmp125.i to i8*		; <i8*> [#uses=1]
	store i32 8, i32* @cg_caller_call_site_var, align 4
	store i32 18, i32* @cg_caller_id_var, align 4
	call void @llvm.memset.i64( i8* %tmp125126.i, i8 0, i64 %tmp122.i, i32 8 ) nounwind 
	store i32 9, i32* @cg_caller_call_site_var, align 4
	store i32 18, i32* @cg_caller_id_var, align 4
	call fastcc void @_ZN9regmngobj15redefineregionsEv( ) nounwind 
	%tmp63 = load float* getelementptr (%struct.regmngobj* @regmng, i32 0, i32 11), align 8		; <float> [#uses=1]
	%tmp64 = mul float %tmp63, 1.900000e+01		; <float> [#uses=1]
	%tmp6465 = fptosi float %tmp64 to i32		; <i32> [#uses=3]
	store i32 %tmp6465, i32* getelementptr (%struct.regmngobj* @regmng, i32 0, i32 9), align 8
	%tmp74 = mul i32 %tmp6465, %tmp6465		; <i32> [#uses=1]
	store i32 %tmp74, i32* getelementptr (%struct.regmngobj* @regmng, i32 0, i32 10), align 8
	%tmp197436.i = load i32* getelementptr (%struct.regmngobj* @regmng, i32 0, i32 13), align 8		; <i32> [#uses=2]
	%tmp199437.i = icmp slt i32 %tmp197436.i, 0		; <i1> [#uses=1]
	br i1 %tmp199437.i, label %bb202.i, label %bb183.preheader.i

bb6.i:		; preds = %bb183.preheader.i, %cond_next180.i
	%x.0429.i = phi i32 [ %tmp182.i33, %cond_next180.i ], [ 0, %bb183.preheader.i ]		; <i32> [#uses=3]
	%val337 = load i32* @cg_caller_id_var, align 4		; <i32> [#uses=2]
	%val438 = load i32* @cg_caller_call_site_var, align 4		; <i32> [#uses=2]
	store i32 90, i32* @cg_caller_id_var, align 4
	call void @CallEdgeProfiler( i32 %val337, i32 %val438, i32 90 )
	%tmp16.i = load %struct.regobj*** getelementptr (%struct.regmngobj* @regmng, i32 0, i32 6), align 8		; <%struct.regobj**> [#uses=1]
	%tmp19.i = load i32* getelementptr (%struct.regmngobj* @regmng, i32 0, i32 16), align 8		; <i32> [#uses=1]
	%tmp21.i = mul i32 %tmp19.i, %y.0434.i		; <i32> [#uses=1]
	%tmp23.i = add i32 %tmp21.i, %x.0429.i		; <i32> [#uses=1]
	%tmp2324.i14 = sext i32 %tmp23.i to i64		; <i64> [#uses=2]
	%tmp25.i15 = getelementptr %struct.regobj** %tmp16.i, i64 %tmp2324.i14		; <%struct.regobj**> [#uses=1]
	%tmp29.i16 = load %struct.regobj** %tmp25.i15, align 8		; <%struct.regobj*> [#uses=1]
	%tmp30.i17 = icmp eq %struct.regobj* %tmp29.i16, null		; <i1> [#uses=1]
	br i1 %tmp30.i17, label %cond_true.i20, label %cond_next180.i

cond_true.i20:		; preds = %bb6.i
	%tmp42.i = load i8** getelementptr (%struct.regmngobj* @regmng, i32 0, i32 7), align 8		; <i8*> [#uses=1]
	%tmp51.i18 = getelementptr i8* %tmp42.i, i64 %tmp2324.i14		; <i8*> [#uses=1]
	%tmp52.i = load i8* %tmp51.i18, align 1		; <i8> [#uses=1]
	%tmp56575861.i = zext i8 %tmp52.i to i64		; <i64> [#uses=1]
	%tmp62.i19 = getelementptr %struct.regmngobj* @regmng, i32 0, i32 8, i64 %tmp56575861.i		; <i8*> [#uses=1]
	%tmp63.i = load i8* %tmp62.i19, align 1		; <i8> [#uses=1]
	%toBool65.i = icmp eq i8 %tmp63.i, 0		; <i1> [#uses=1]
	br i1 %toBool65.i, label %cond_next180.i, label %cond_true66.i

cond_true66.i:		; preds = %cond_true.i20
	%tmp3.i.i = load i32* @y1rnd, align 4		; <i32> [#uses=1]
	%tmp4.i.i21 = mul i32 %tmp3.i.i, 171		; <i32> [#uses=1]
	%tmp5.i.i22 = srem i32 %tmp4.i.i21, 30269		; <i32> [#uses=2]
	store i32 %tmp5.i.i22, i32* @y1rnd, align 4
	%tmp6.i.i = load i32* @y2rnd, align 4		; <i32> [#uses=1]
	%tmp7.i.i = mul i32 %tmp6.i.i, 172		; <i32> [#uses=1]
	%tmp8.i.i23 = srem i32 %tmp7.i.i, 30307		; <i32> [#uses=2]
	store i32 %tmp8.i.i23, i32* @y2rnd, align 4
	%tmp9.i.i = load i32* @y3rnd, align 4		; <i32> [#uses=1]
	%tmp10.i.i = mul i32 %tmp9.i.i, 170		; <i32> [#uses=1]
	%tmp11.i.i = srem i32 %tmp10.i.i, 30323		; <i32> [#uses=2]
	store i32 %tmp11.i.i, i32* @y3rnd, align 4
	%tmp1213.i.i = sitofp i32 %tmp5.i.i22 to float		; <float> [#uses=1]
	%tmp16.i.i = mul float %tmp1213.i.i, 0x3F01522A20000000		; <float> [#uses=1]
	%tmp1718.i.i = sitofp i32 %tmp8.i.i23 to float		; <float> [#uses=1]
	%tmp21.i.i = mul float %tmp1718.i.i, 0x3F014C9AE0000000		; <float> [#uses=1]
	%tmp2223.i.i = sitofp i32 %tmp11.i.i to float		; <float> [#uses=1]
	%tmp26.i.i = mul float %tmp2223.i.i, 0x3F014A44A0000000		; <float> [#uses=1]
	%tmp29.i.i = add float %tmp16.i.i, %tmp21.i.i		; <float> [#uses=1]
	%tmp31.i.i = add float %tmp29.i.i, %tmp26.i.i		; <float> [#uses=2]
	%tmp3637.i.i = fptosi float %tmp31.i.i to i32		; <i32> [#uses=1]
	%tmp363738.i.i = sitofp i32 %tmp3637.i.i to float		; <float> [#uses=1]
	%tmp39.i.i = sub float %tmp31.i.i, %tmp363738.i.i		; <float> [#uses=1]
	%tmp44.i.i = mul float %tmp39.i.i, 3.200000e+01		; <float> [#uses=1]
	%tmp4445.i.i = fptosi float %tmp44.i.i to i32		; <i32> [#uses=1]
	%tmp68.i = icmp eq i32 %tmp4445.i.i, 1		; <i1> [#uses=1]
	br i1 %tmp68.i, label %cond_true72.i, label %cond_next180.i

cond_true72.i:		; preds = %cond_true66.i
	store i32 10, i32* @cg_caller_call_site_var, align 4
	store i32 18, i32* @cg_caller_id_var, align 4
	store i32 1, i32* @cg_caller_call_site_var, align 4
	store i32 89, i32* @cg_caller_id_var, align 4
	store i32 1, i32* @cg_caller_call_site_var, align 4
	store i32 90, i32* @cg_caller_id_var, align 4
	%tmp80.i = call i8* @_Znwm( i64 56 )		; <i8*> [#uses=2]
	%tmp8081.i = bitcast i8* %tmp80.i to %struct.regobj*		; <%struct.regobj*> [#uses=3]
	%tmp89.i24 = getelementptr %struct.regobj* %tmp8081.i, i32 0, i32 3		; <%struct.regmngobj**> [#uses=1]
	store %struct.regmngobj* @regmng, %struct.regmngobj** %tmp89.i24, align 8
	%tmp100.i25 = load i32* getelementptr (%struct.regmngobj* @regmng, i32 0, i32 18, i32 4), align 8		; <i32> [#uses=1]
	%tmp103.i = load i32* getelementptr (%struct.regmngobj* @regmng, i32 0, i32 18, i32 5), align 8		; <i32> [#uses=1]
	%tmp104.i = icmp eq i32 %tmp100.i25, %tmp103.i		; <i1> [#uses=1]
	br i1 %tmp104.i, label %cond_true107.i, label %cond_next.i32

cond_true107.i:		; preds = %cond_true72.i
	store i32 11, i32* @cg_caller_call_site_var, align 4
	store i32 18, i32* @cg_caller_id_var, align 4
	store i32 2, i32* @cg_caller_call_site_var, align 4
	store i32 89, i32* @cg_caller_id_var, align 4
	store i32 2, i32* @cg_caller_call_site_var, align 4
	store i32 90, i32* @cg_caller_id_var, align 4
	call fastcc void @_ZN15largesolidarrayIP6regobjE8doublingEv( )
	br label %cond_next.i32

cond_next.i32:		; preds = %cond_true107.i, %cond_true72.i
	%tmp111.i = load %struct.regobj*** getelementptr (%struct.regmngobj* @regmng, i32 0, i32 18, i32 0), align 8		; <%struct.regobj**> [#uses=1]
	%tmp114.i = load i32* getelementptr (%struct.regmngobj* @regmng, i32 0, i32 18, i32 4), align 8		; <i32> [#uses=1]
	%tmp114117.i = sext i32 %tmp114.i to i64		; <i64> [#uses=1]
	%tmp118.i = getelementptr %struct.regobj** %tmp111.i, i64 %tmp114117.i		; <%struct.regobj**> [#uses=1]
	store %struct.regobj* %tmp8081.i, %struct.regobj** %tmp118.i, align 8
	%tmp125.i26 = load i32* getelementptr (%struct.regmngobj* @regmng, i32 0, i32 18, i32 1, i32 1), align 8		; <i32> [#uses=1]
	%tmp126.i27 = add i32 %tmp125.i26, -1		; <i32> [#uses=2]
	store i32 %tmp126.i27, i32* getelementptr (%struct.regmngobj* @regmng, i32 0, i32 18, i32 1, i32 1), align 8
	%tmp131.i = load i32** getelementptr (%struct.regmngobj* @regmng, i32 0, i32 18, i32 1, i32 0), align 8		; <i32*> [#uses=1]
	%tmp134135.i = sext i32 %tmp126.i27 to i64		; <i64> [#uses=1]
	%tmp136.i = getelementptr i32* %tmp131.i, i64 %tmp134135.i		; <i32*> [#uses=1]
	%tmp137.i = load i32* %tmp136.i, align 4		; <i32> [#uses=3]
	%tmp144.i28 = load i32** getelementptr (%struct.regmngobj* @regmng, i32 0, i32 18, i32 2, i32 0), align 8		; <i32*> [#uses=1]
	%tmp147.i = load i32* getelementptr (%struct.regmngobj* @regmng, i32 0, i32 18, i32 4), align 8		; <i32> [#uses=1]
	%tmp148149.i29 = sext i32 %tmp137.i to i64		; <i64> [#uses=1]
	%tmp150.i30 = getelementptr i32* %tmp144.i28, i64 %tmp148149.i29		; <i32*> [#uses=1]
	store i32 %tmp147.i, i32* %tmp150.i30, align 4
	%tmp154.i31 = load i32** getelementptr (%struct.regmngobj* @regmng, i32 0, i32 18, i32 3, i32 0), align 8		; <i32*> [#uses=1]
	%tmp157.i = load i32* getelementptr (%struct.regmngobj* @regmng, i32 0, i32 18, i32 4), align 8		; <i32> [#uses=1]
	%tmp157158.i = sext i32 %tmp157.i to i64		; <i64> [#uses=1]
	%tmp159.i = getelementptr i32* %tmp154.i31, i64 %tmp157158.i		; <i32*> [#uses=1]
	store i32 %tmp137.i, i32* %tmp159.i, align 4
	%tmp163.i = load i32* getelementptr (%struct.regmngobj* @regmng, i32 0, i32 18, i32 4), align 8		; <i32> [#uses=1]
	%tmp164.i = add i32 %tmp163.i, 1		; <i32> [#uses=1]
	store i32 %tmp164.i, i32* getelementptr (%struct.regmngobj* @regmng, i32 0, i32 18, i32 4), align 8
	%tmp170.i = bitcast i8* %tmp80.i to i32*		; <i32*> [#uses=1]
	store i32 %tmp137.i, i32* %tmp170.i, align 8
	store i32 12, i32* @cg_caller_call_site_var, align 4
	store i32 18, i32* @cg_caller_id_var, align 4
	store i32 0, i32* @cg_caller_call_site_var, align 4
	store i32 89, i32* @cg_caller_id_var, align 4
	store i32 0, i32* @cg_caller_call_site_var, align 4
	store i32 90, i32* @cg_caller_id_var, align 4
	call fastcc void @_ZN6regobj6createEii( %struct.regobj* %tmp8081.i, i32 %x.0429.i, i32 %y.0434.i )
	br label %cond_next180.i

cond_next180.i:		; preds = %cond_next.i32, %cond_true66.i, %cond_true.i20, %bb6.i
	%tmp182.i33 = add i32 %x.0429.i, 1		; <i32> [#uses=2]
	%tmp186.i34 = load i32* getelementptr (%struct.regmngobj* @regmng, i32 0, i32 12), align 8		; <i32> [#uses=1]
	%tmp188.i = icmp slt i32 %tmp186.i34, %tmp182.i33		; <i1> [#uses=1]
	store i32 %val438, i32* @cg_caller_call_site_var, align 4
	store i32 %val337, i32* @cg_caller_id_var, align 4
	br i1 %tmp188.i, label %bb191.i, label %bb6.i

bb191.i:		; preds = %bb183.preheader.i, %cond_next180.i
	%tmp193.i = add i32 %y.0434.i, 1		; <i32> [#uses=2]
	%tmp197.i35 = load i32* getelementptr (%struct.regmngobj* @regmng, i32 0, i32 13), align 8		; <i32> [#uses=2]
	%tmp199.i = icmp slt i32 %tmp197.i35, %tmp193.i		; <i1> [#uses=1]
	store i32 %val436, i32* @cg_caller_call_site_var, align 4
	store i32 %val335, i32* @cg_caller_id_var, align 4
	br i1 %tmp199.i, label %bb202.i, label %bb183.preheader.i

bb183.preheader.i:		; preds = %bb191.i, %_ZN9regmngobj14enlargeregionsEv.exit
	%y.0434.i = phi i32 [ %tmp193.i, %bb191.i ], [ 0, %_ZN9regmngobj14enlargeregionsEv.exit ]		; <i32> [#uses=3]
	%val335 = load i32* @cg_caller_id_var, align 4		; <i32> [#uses=2]
	%val436 = load i32* @cg_caller_call_site_var, align 4		; <i32> [#uses=2]
	store i32 89, i32* @cg_caller_id_var, align 4
	call void @CallEdgeProfiler( i32 %val335, i32 %val436, i32 89 )
	%tmp186431.i = load i32* getelementptr (%struct.regmngobj* @regmng, i32 0, i32 12), align 8		; <i32> [#uses=1]
	%tmp188432.i = icmp slt i32 %tmp186431.i, 0		; <i1> [#uses=1]
	br i1 %tmp188432.i, label %bb191.i, label %bb6.i

bb202.i:		; preds = %bb191.i, %_ZN9regmngobj14enlargeregionsEv.exit
	%tmp411426.rle.i = phi i32 [ %tmp197436.i, %_ZN9regmngobj14enlargeregionsEv.exit ], [ %tmp197.i35, %bb191.i ]		; <i32> [#uses=1]
	%tmp413427.i = icmp slt i32 %tmp411426.rle.i, 0		; <i1> [#uses=1]
	br i1 %tmp413427.i, label %_ZN9regmngobj10addregionsEv.exit, label %bb397.preheader.i

bb217.i:		; preds = %bb397.preheader.i, %cond_next394.i
	%x214.0420.i = phi i32 [ %tmp396.i, %cond_next394.i ], [ 0, %bb397.preheader.i ]		; <i32> [#uses=3]
	%val333 = load i32* @cg_caller_id_var, align 4		; <i32> [#uses=2]
	%val434 = load i32* @cg_caller_call_site_var, align 4		; <i32> [#uses=2]
	store i32 88, i32* @cg_caller_id_var, align 4
	call void @CallEdgeProfiler( i32 %val333, i32 %val434, i32 88 )
	%tmp227.i36 = load %struct.regobj*** getelementptr (%struct.regmngobj* @regmng, i32 0, i32 6), align 8		; <%struct.regobj**> [#uses=1]
	%tmp230.i37 = load i32* getelementptr (%struct.regmngobj* @regmng, i32 0, i32 16), align 8		; <i32> [#uses=1]
	%tmp232.i = mul i32 %tmp230.i37, %y215.0424.i		; <i32> [#uses=1]
	%tmp234.i = add i32 %tmp232.i, %x214.0420.i		; <i32> [#uses=1]
	%tmp234235.i = sext i32 %tmp234.i to i64		; <i64> [#uses=2]
	%tmp236.i = getelementptr %struct.regobj** %tmp227.i36, i64 %tmp234235.i		; <%struct.regobj**> [#uses=1]
	%tmp240.i38 = load %struct.regobj** %tmp236.i, align 8		; <%struct.regobj*> [#uses=1]
	%tmp241.i = icmp eq %struct.regobj* %tmp240.i38, null		; <i1> [#uses=1]
	br i1 %tmp241.i, label %cond_true245.i, label %cond_next394.i

cond_true245.i:		; preds = %bb217.i
	%tmp255.i = load i8** getelementptr (%struct.regmngobj* @regmng, i32 0, i32 7), align 8		; <i8*> [#uses=1]
	%tmp264.i = getelementptr i8* %tmp255.i, i64 %tmp234235.i		; <i8*> [#uses=1]
	%tmp265.i39 = load i8* %tmp264.i, align 1		; <i8> [#uses=1]
	%tmp269270271274.i = zext i8 %tmp265.i39 to i64		; <i64> [#uses=1]
	%tmp275.i = getelementptr %struct.regmngobj* @regmng, i32 0, i32 8, i64 %tmp269270271274.i		; <i8*> [#uses=1]
	%tmp276.i = load i8* %tmp275.i, align 1		; <i8> [#uses=1]
	%toBool278.i = icmp eq i8 %tmp276.i, 0		; <i1> [#uses=1]
	br i1 %toBool278.i, label %cond_next394.i, label %cond_true279.i

cond_true279.i:		; preds = %cond_true245.i
	store i32 13, i32* @cg_caller_call_site_var, align 4
	store i32 18, i32* @cg_caller_id_var, align 4
	store i32 1, i32* @cg_caller_call_site_var, align 4
	store i32 87, i32* @cg_caller_id_var, align 4
	store i32 1, i32* @cg_caller_call_site_var, align 4
	store i32 88, i32* @cg_caller_id_var, align 4
	%tmp290.i = call i8* @_Znwm( i64 56 )		; <i8*> [#uses=2]
	%tmp290291.i = bitcast i8* %tmp290.i to %struct.regobj*		; <%struct.regobj*> [#uses=3]
	%tmp300.i = getelementptr %struct.regobj* %tmp290291.i, i32 0, i32 3		; <%struct.regmngobj**> [#uses=1]
	store %struct.regmngobj* @regmng, %struct.regmngobj** %tmp300.i, align 8
	%tmp314.i = load i32* getelementptr (%struct.regmngobj* @regmng, i32 0, i32 18, i32 4), align 8		; <i32> [#uses=1]
	%tmp317.i40 = load i32* getelementptr (%struct.regmngobj* @regmng, i32 0, i32 18, i32 5), align 8		; <i32> [#uses=1]
	%tmp318.i = icmp eq i32 %tmp314.i, %tmp317.i40		; <i1> [#uses=1]
	br i1 %tmp318.i, label %cond_true321.i, label %cond_next323.i

cond_true321.i:		; preds = %cond_true279.i
	store i32 14, i32* @cg_caller_call_site_var, align 4
	store i32 18, i32* @cg_caller_id_var, align 4
	store i32 2, i32* @cg_caller_call_site_var, align 4
	store i32 87, i32* @cg_caller_id_var, align 4
	store i32 2, i32* @cg_caller_call_site_var, align 4
	store i32 88, i32* @cg_caller_id_var, align 4
	call fastcc void @_ZN15largesolidarrayIP6regobjE8doublingEv( )
	br label %cond_next323.i

cond_next323.i:		; preds = %cond_true321.i, %cond_true279.i
	%tmp326.i = load %struct.regobj*** getelementptr (%struct.regmngobj* @regmng, i32 0, i32 18, i32 0), align 8		; <%struct.regobj**> [#uses=1]
	%tmp329.i = load i32* getelementptr (%struct.regmngobj* @regmng, i32 0, i32 18, i32 4), align 8		; <i32> [#uses=1]
	%tmp329332.i = sext i32 %tmp329.i to i64		; <i64> [#uses=1]
	%tmp333.i41 = getelementptr %struct.regobj** %tmp326.i, i64 %tmp329332.i		; <%struct.regobj**> [#uses=1]
	store %struct.regobj* %tmp290291.i, %struct.regobj** %tmp333.i41, align 8
	%tmp340.i = load i32* getelementptr (%struct.regmngobj* @regmng, i32 0, i32 18, i32 1, i32 1), align 8		; <i32> [#uses=1]
	%tmp341.i = add i32 %tmp340.i, -1		; <i32> [#uses=2]
	store i32 %tmp341.i, i32* getelementptr (%struct.regmngobj* @regmng, i32 0, i32 18, i32 1, i32 1), align 8
	%tmp346.i42 = load i32** getelementptr (%struct.regmngobj* @regmng, i32 0, i32 18, i32 1, i32 0), align 8		; <i32*> [#uses=1]
	%tmp349350.i = sext i32 %tmp341.i to i64		; <i64> [#uses=1]
	%tmp351.i43 = getelementptr i32* %tmp346.i42, i64 %tmp349350.i		; <i32*> [#uses=1]
	%tmp352.i = load i32* %tmp351.i43, align 4		; <i32> [#uses=3]
	%tmp359.i = load i32** getelementptr (%struct.regmngobj* @regmng, i32 0, i32 18, i32 2, i32 0), align 8		; <i32*> [#uses=1]
	%tmp362.i = load i32* getelementptr (%struct.regmngobj* @regmng, i32 0, i32 18, i32 4), align 8		; <i32> [#uses=1]
	%tmp363364.i = sext i32 %tmp352.i to i64		; <i64> [#uses=1]
	%tmp365.i = getelementptr i32* %tmp359.i, i64 %tmp363364.i		; <i32*> [#uses=1]
	store i32 %tmp362.i, i32* %tmp365.i, align 4
	%tmp369.i = load i32** getelementptr (%struct.regmngobj* @regmng, i32 0, i32 18, i32 3, i32 0), align 8		; <i32*> [#uses=1]
	%tmp372.i = load i32* getelementptr (%struct.regmngobj* @regmng, i32 0, i32 18, i32 4), align 8		; <i32> [#uses=1]
	%tmp372373.i = sext i32 %tmp372.i to i64		; <i64> [#uses=1]
	%tmp374.i = getelementptr i32* %tmp369.i, i64 %tmp372373.i		; <i32*> [#uses=1]
	store i32 %tmp352.i, i32* %tmp374.i, align 4
	%tmp378.i44 = load i32* getelementptr (%struct.regmngobj* @regmng, i32 0, i32 18, i32 4), align 8		; <i32> [#uses=1]
	%tmp379.i = add i32 %tmp378.i44, 1		; <i32> [#uses=1]
	store i32 %tmp379.i, i32* getelementptr (%struct.regmngobj* @regmng, i32 0, i32 18, i32 4), align 8
	%tmp385.i = bitcast i8* %tmp290.i to i32*		; <i32*> [#uses=1]
	store i32 %tmp352.i, i32* %tmp385.i, align 8
	store i32 15, i32* @cg_caller_call_site_var, align 4
	store i32 18, i32* @cg_caller_id_var, align 4
	store i32 0, i32* @cg_caller_call_site_var, align 4
	store i32 87, i32* @cg_caller_id_var, align 4
	store i32 0, i32* @cg_caller_call_site_var, align 4
	store i32 88, i32* @cg_caller_id_var, align 4
	call fastcc void @_ZN6regobj6createEii( %struct.regobj* %tmp290291.i, i32 %x214.0420.i, i32 %y215.0424.i )
	br label %cond_next394.i

cond_next394.i:		; preds = %cond_next323.i, %cond_true245.i, %bb217.i
	%tmp396.i = add i32 %x214.0420.i, 1		; <i32> [#uses=2]
	%tmp400.i = load i32* getelementptr (%struct.regmngobj* @regmng, i32 0, i32 12), align 8		; <i32> [#uses=1]
	%tmp402.i = icmp slt i32 %tmp400.i, %tmp396.i		; <i1> [#uses=1]
	store i32 %val434, i32* @cg_caller_call_site_var, align 4
	store i32 %val333, i32* @cg_caller_id_var, align 4
	br i1 %tmp402.i, label %bb405.i, label %bb217.i

bb405.i:		; preds = %bb397.preheader.i, %cond_next394.i
	%tmp407.i = add i32 %y215.0424.i, 1		; <i32> [#uses=2]
	%tmp411.i45 = load i32* getelementptr (%struct.regmngobj* @regmng, i32 0, i32 13), align 8		; <i32> [#uses=1]
	%tmp413.i = icmp slt i32 %tmp411.i45, %tmp407.i		; <i1> [#uses=1]
	store i32 %val432, i32* @cg_caller_call_site_var, align 4
	store i32 %val331, i32* @cg_caller_id_var, align 4
	br i1 %tmp413.i, label %_ZN9regmngobj10addregionsEv.exit, label %bb397.preheader.i

bb397.preheader.i:		; preds = %bb405.i, %bb202.i
	%y215.0424.i = phi i32 [ %tmp407.i, %bb405.i ], [ 0, %bb202.i ]		; <i32> [#uses=3]
	%val331 = load i32* @cg_caller_id_var, align 4		; <i32> [#uses=2]
	%val432 = load i32* @cg_caller_call_site_var, align 4		; <i32> [#uses=2]
	store i32 87, i32* @cg_caller_id_var, align 4
	call void @CallEdgeProfiler( i32 %val331, i32 %val432, i32 87 )
	%tmp400422.i = load i32* getelementptr (%struct.regmngobj* @regmng, i32 0, i32 12), align 8		; <i32> [#uses=1]
	%tmp402423.i = icmp slt i32 %tmp400422.i, 0		; <i1> [#uses=1]
	br i1 %tmp402423.i, label %bb405.i, label %bb217.i

_ZN9regmngobj10addregionsEv.exit:		; preds = %bb405.i, %bb202.i
	%tmp80 = load i32* getelementptr (%struct.regmngobj* @regmng, i32 0, i32 12), align 8		; <i32> [#uses=1]
	%tmp81 = mul i32 %tmp80, 5		; <i32> [#uses=3]
	store i32 %tmp81, i32* getelementptr (%struct.regmngobj* @regmng, i32 0, i32 9), align 8
	%tmp90 = mul i32 %tmp81, %tmp81		; <i32> [#uses=1]
	store i32 %tmp90, i32* getelementptr (%struct.regmngobj* @regmng, i32 0, i32 10), align 8
	store i32 16, i32* @cg_caller_call_site_var, align 4
	store i32 18, i32* @cg_caller_id_var, align 4
	call fastcc void @_ZN9regmngobj19defineneighborhood1Ev( )
	%tmp96 = load float* getelementptr (%struct.regmngobj* @regmng, i32 0, i32 11), align 8		; <float> [#uses=2]
	%tmp97 = mul float %tmp96, 7.500000e+01		; <float> [#uses=1]
	%tmp101 = mul float %tmp97, %tmp96		; <float> [#uses=1]
	%tmp101102 = fptosi float %tmp101 to i32		; <i32> [#uses=1]
	store i32 17, i32* @cg_caller_call_site_var, align 4
	store i32 18, i32* @cg_caller_id_var, align 4
	call fastcc void @_ZN9regmngobj18enlargeneighborsesEi( i32 %tmp101102 )
	store i32 18, i32* @cg_caller_call_site_var, align 4
	store i32 18, i32* @cg_caller_id_var, align 4
	call fastcc void @_ZN9regmngobj19defineneighborhood1Ev( )
	%tmp107 = load float* getelementptr (%struct.regmngobj* @regmng, i32 0, i32 11), align 8		; <float> [#uses=1]
	%tmp107108 = fpext float %tmp107 to double		; <double> [#uses=2]
	%tmp109 = mul double %tmp107108, 7.500000e+01		; <double> [#uses=1]
	%tmp114 = mul double %tmp109, %tmp107108		; <double> [#uses=1]
	%tmp114115 = fptosi double %tmp114 to i32		; <i32> [#uses=1]
	store i32 19, i32* @cg_caller_call_site_var, align 4
	store i32 18, i32* @cg_caller_id_var, align 4
	call fastcc void @_ZN9regmngobj18enlargeneighborsesEi( i32 %tmp114115 )
	%tmp309876 = load i32* getelementptr (%struct.regmngobj* @regmng, i32 0, i32 13), align 8		; <i32> [#uses=1]
	%tmp311878 = icmp slt i32 %tmp309876, 0		; <i1> [#uses=1]
	br i1 %tmp311878, label %bb314, label %bb295.outer

bb295.outer:		; preds = %bb306, %_ZN9regmngobj10addregionsEv.exit
	%y121.0.reg2mem.0.ph = phi i32 [ %tmp305, %bb306 ], [ 0, %_ZN9regmngobj10addregionsEv.exit ]		; <i32> [#uses=3]
	%val327 = load i32* @cg_caller_id_var, align 4		; <i32> [#uses=2]
	%val428 = load i32* @cg_caller_call_site_var, align 4		; <i32> [#uses=2]
	store i32 85, i32* @cg_caller_id_var, align 4
	call void @CallEdgeProfiler( i32 %val327, i32 %val428, i32 85 )
	%tmp298915 = load i32* getelementptr (%struct.regmngobj* @regmng, i32 0, i32 12), align 8		; <i32> [#uses=1]
	%tmp300916 = icmp slt i32 %tmp298915, 0		; <i1> [#uses=1]
	br i1 %tmp300916, label %bb306, label %bb122

bb122:		; preds = %cond_next292, %bb295.outer
	%x120.0913 = phi i32 [ %tmp294, %cond_next292 ], [ 0, %bb295.outer ]		; <i32> [#uses=3]
	%val329 = load i32* @cg_caller_id_var, align 4		; <i32> [#uses=2]
	%val430 = load i32* @cg_caller_call_site_var, align 4		; <i32> [#uses=2]
	store i32 86, i32* @cg_caller_id_var, align 4
	call void @CallEdgeProfiler( i32 %val329, i32 %val430, i32 86 )
	%tmp132 = load %struct.regobj*** getelementptr (%struct.regmngobj* @regmng, i32 0, i32 6), align 8		; <%struct.regobj**> [#uses=1]
	%tmp135 = load i32* getelementptr (%struct.regmngobj* @regmng, i32 0, i32 16), align 8		; <i32> [#uses=1]
	%tmp137 = mul i32 %tmp135, %y121.0.reg2mem.0.ph		; <i32> [#uses=1]
	%tmp139 = add i32 %tmp137, %x120.0913		; <i32> [#uses=1]
	%tmp139140 = sext i32 %tmp139 to i64		; <i64> [#uses=2]
	%tmp141 = getelementptr %struct.regobj** %tmp132, i64 %tmp139140		; <%struct.regobj**> [#uses=1]
	%tmp145 = load %struct.regobj** %tmp141, align 8		; <%struct.regobj*> [#uses=1]
	%tmp146 = icmp eq %struct.regobj* %tmp145, null		; <i1> [#uses=1]
	br i1 %tmp146, label %cond_true150, label %cond_next292

cond_true150:		; preds = %bb122
	%tmp160 = load i8** getelementptr (%struct.regmngobj* @regmng, i32 0, i32 7), align 8		; <i8*> [#uses=1]
	%tmp169 = getelementptr i8* %tmp160, i64 %tmp139140		; <i8*> [#uses=1]
	%tmp170 = load i8* %tmp169, align 1		; <i8> [#uses=1]
	%tmp174175176179 = zext i8 %tmp170 to i64		; <i64> [#uses=1]
	%tmp180 = getelementptr %struct.regmngobj* @regmng, i32 0, i32 8, i64 %tmp174175176179		; <i8*> [#uses=1]
	%tmp181 = load i8* %tmp180, align 1		; <i8> [#uses=1]
	%toBool183 = icmp eq i8 %tmp181, 0		; <i1> [#uses=1]
	br i1 %toBool183, label %cond_next292, label %cond_true184

cond_true184:		; preds = %cond_true150
	store i32 20, i32* @cg_caller_call_site_var, align 4
	store i32 18, i32* @cg_caller_id_var, align 4
	store i32 1, i32* @cg_caller_call_site_var, align 4
	store i32 85, i32* @cg_caller_id_var, align 4
	store i32 1, i32* @cg_caller_call_site_var, align 4
	store i32 86, i32* @cg_caller_id_var, align 4
	%tmp192 = call i8* @_Znwm( i64 56 )		; <i8*> [#uses=2]
	%tmp192193 = bitcast i8* %tmp192 to %struct.regobj*		; <%struct.regobj*> [#uses=3]
	%tmp201 = getelementptr %struct.regobj* %tmp192193, i32 0, i32 3		; <%struct.regmngobj**> [#uses=1]
	store %struct.regmngobj* @regmng, %struct.regmngobj** %tmp201, align 8
	%tmp212 = load i32* getelementptr (%struct.regmngobj* @regmng, i32 0, i32 18, i32 4), align 8		; <i32> [#uses=1]
	%tmp215 = load i32* getelementptr (%struct.regmngobj* @regmng, i32 0, i32 18, i32 5), align 8		; <i32> [#uses=1]
	%tmp216 = icmp eq i32 %tmp212, %tmp215		; <i1> [#uses=1]
	br i1 %tmp216, label %cond_true219, label %cond_next221

cond_true219:		; preds = %cond_true184
	store i32 21, i32* @cg_caller_call_site_var, align 4
	store i32 18, i32* @cg_caller_id_var, align 4
	store i32 2, i32* @cg_caller_call_site_var, align 4
	store i32 85, i32* @cg_caller_id_var, align 4
	store i32 2, i32* @cg_caller_call_site_var, align 4
	store i32 86, i32* @cg_caller_id_var, align 4
	call fastcc void @_ZN15largesolidarrayIP6regobjE8doublingEv( )
	br label %cond_next221

cond_next221:		; preds = %cond_true219, %cond_true184
	%tmp224 = load %struct.regobj*** getelementptr (%struct.regmngobj* @regmng, i32 0, i32 18, i32 0), align 8		; <%struct.regobj**> [#uses=1]
	%tmp227 = load i32* getelementptr (%struct.regmngobj* @regmng, i32 0, i32 18, i32 4), align 8		; <i32> [#uses=1]
	%tmp227230 = sext i32 %tmp227 to i64		; <i64> [#uses=1]
	%tmp231 = getelementptr %struct.regobj** %tmp224, i64 %tmp227230		; <%struct.regobj**> [#uses=1]
	store %struct.regobj* %tmp192193, %struct.regobj** %tmp231, align 8
	%tmp238 = load i32* getelementptr (%struct.regmngobj* @regmng, i32 0, i32 18, i32 1, i32 1), align 8		; <i32> [#uses=1]
	%tmp239 = add i32 %tmp238, -1		; <i32> [#uses=2]
	store i32 %tmp239, i32* getelementptr (%struct.regmngobj* @regmng, i32 0, i32 18, i32 1, i32 1), align 8
	%tmp244 = load i32** getelementptr (%struct.regmngobj* @regmng, i32 0, i32 18, i32 1, i32 0), align 8		; <i32*> [#uses=1]
	%tmp247248 = sext i32 %tmp239 to i64		; <i64> [#uses=1]
	%tmp249 = getelementptr i32* %tmp244, i64 %tmp247248		; <i32*> [#uses=1]
	%tmp250 = load i32* %tmp249, align 4		; <i32> [#uses=3]
	%tmp257 = load i32** getelementptr (%struct.regmngobj* @regmng, i32 0, i32 18, i32 2, i32 0), align 8		; <i32*> [#uses=1]
	%tmp260 = load i32* getelementptr (%struct.regmngobj* @regmng, i32 0, i32 18, i32 4), align 8		; <i32> [#uses=1]
	%tmp261262 = sext i32 %tmp250 to i64		; <i64> [#uses=1]
	%tmp263 = getelementptr i32* %tmp257, i64 %tmp261262		; <i32*> [#uses=1]
	store i32 %tmp260, i32* %tmp263, align 4
	%tmp267 = load i32** getelementptr (%struct.regmngobj* @regmng, i32 0, i32 18, i32 3, i32 0), align 8		; <i32*> [#uses=1]
	%tmp270 = load i32* getelementptr (%struct.regmngobj* @regmng, i32 0, i32 18, i32 4), align 8		; <i32> [#uses=1]
	%tmp270271 = sext i32 %tmp270 to i64		; <i64> [#uses=1]
	%tmp272 = getelementptr i32* %tmp267, i64 %tmp270271		; <i32*> [#uses=1]
	store i32 %tmp250, i32* %tmp272, align 4
	%tmp276 = load i32* getelementptr (%struct.regmngobj* @regmng, i32 0, i32 18, i32 4), align 8		; <i32> [#uses=1]
	%tmp277 = add i32 %tmp276, 1		; <i32> [#uses=1]
	store i32 %tmp277, i32* getelementptr (%struct.regmngobj* @regmng, i32 0, i32 18, i32 4), align 8
	%tmp283 = bitcast i8* %tmp192 to i32*		; <i32*> [#uses=1]
	store i32 %tmp250, i32* %tmp283, align 8
	store i32 22, i32* @cg_caller_call_site_var, align 4
	store i32 18, i32* @cg_caller_id_var, align 4
	store i32 0, i32* @cg_caller_call_site_var, align 4
	store i32 85, i32* @cg_caller_id_var, align 4
	store i32 0, i32* @cg_caller_call_site_var, align 4
	store i32 86, i32* @cg_caller_id_var, align 4
	call fastcc void @_ZN6regobj6createEii( %struct.regobj* %tmp192193, i32 %x120.0913, i32 %y121.0.reg2mem.0.ph )
	br label %cond_next292

cond_next292:		; preds = %cond_next221, %cond_true150, %bb122
	%tmp294 = add i32 %x120.0913, 1		; <i32> [#uses=2]
	%tmp298 = load i32* getelementptr (%struct.regmngobj* @regmng, i32 0, i32 12), align 8		; <i32> [#uses=1]
	%tmp300 = icmp slt i32 %tmp298, %tmp294		; <i1> [#uses=1]
	store i32 %val430, i32* @cg_caller_call_site_var, align 4
	store i32 %val329, i32* @cg_caller_id_var, align 4
	br i1 %tmp300, label %bb306, label %bb122

bb306:		; preds = %cond_next292, %bb295.outer
	%tmp305 = add i32 %y121.0.reg2mem.0.ph, 1		; <i32> [#uses=2]
	%tmp309 = load i32* getelementptr (%struct.regmngobj* @regmng, i32 0, i32 13), align 8		; <i32> [#uses=1]
	%tmp311 = icmp slt i32 %tmp309, %tmp305		; <i1> [#uses=1]
	store i32 %val428, i32* @cg_caller_call_site_var, align 4
	store i32 %val327, i32* @cg_caller_id_var, align 4
	br i1 %tmp311, label %bb314, label %bb295.outer

bb314:		; preds = %bb306, %_ZN9regmngobj10addregionsEv.exit
	store i32 23, i32* @cg_caller_call_site_var, align 4
	store i32 18, i32* @cg_caller_id_var, align 4
	call fastcc void @_ZN9regmngobj13deleteregionsEv( )
	%tmp400883 = load i32* getelementptr (%struct.regmngobj* @regmng, i32 0, i32 13), align 8		; <i32> [#uses=1]
	%tmp402885 = icmp sgt i32 %tmp400883, 0		; <i1> [#uses=1]
	br i1 %tmp402885, label %bb386.outer, label %bb405

bb386.outer:		; preds = %bb397, %bb314
	%y.0.reg2mem.0.ph = phi i32 [ %tmp396, %bb397 ], [ 0, %bb314 ]		; <i32> [#uses=2]
	%val39 = load i32* @cg_caller_id_var, align 4		; <i32> [#uses=2]
	%val410 = load i32* @cg_caller_call_site_var, align 4		; <i32> [#uses=2]
	store i32 76, i32* @cg_caller_id_var, align 4
	call void @CallEdgeProfiler( i32 %val39, i32 %val410, i32 76 )
	%tmp389934 = load i32* getelementptr (%struct.regmngobj* @regmng, i32 0, i32 12), align 8		; <i32> [#uses=1]
	%tmp391935 = icmp sgt i32 %tmp389934, 0		; <i1> [#uses=1]
	br i1 %tmp391935, label %bb317, label %bb397

bb317:		; preds = %cond_next383, %bb386.outer
	%x.0932 = phi i32 [ %tmp385, %cond_next383 ], [ 0, %bb386.outer ]		; <i32> [#uses=2]
	%val311 = load i32* @cg_caller_id_var, align 4		; <i32> [#uses=2]
	%val412 = load i32* @cg_caller_call_site_var, align 4		; <i32> [#uses=2]
	store i32 77, i32* @cg_caller_id_var, align 4
	call void @CallEdgeProfiler( i32 %val311, i32 %val412, i32 77 )
	%tmp327 = load %struct.regobj*** getelementptr (%struct.regmngobj* @regmng, i32 0, i32 6), align 8		; <%struct.regobj**> [#uses=1]
	%tmp330 = load i32* getelementptr (%struct.regmngobj* @regmng, i32 0, i32 16), align 8		; <i32> [#uses=1]
	%tmp332 = mul i32 %tmp330, %y.0.reg2mem.0.ph		; <i32> [#uses=1]
	%tmp334 = add i32 %tmp332, %x.0932		; <i32> [#uses=1]
	%tmp334335 = sext i32 %tmp334 to i64		; <i64> [#uses=2]
	%tmp336 = getelementptr %struct.regobj** %tmp327, i64 %tmp334335		; <%struct.regobj**> [#uses=1]
	%tmp340 = load %struct.regobj** %tmp336, align 8		; <%struct.regobj*> [#uses=1]
	%tmp341 = icmp eq %struct.regobj* %tmp340, null		; <i1> [#uses=1]
	br i1 %tmp341, label %cond_true345, label %cond_next383

cond_true345:		; preds = %bb317
	%tmp355 = load i8** getelementptr (%struct.regmngobj* @regmng, i32 0, i32 7), align 8		; <i8*> [#uses=1]
	%tmp364 = getelementptr i8* %tmp355, i64 %tmp334335		; <i8*> [#uses=1]
	%tmp365 = load i8* %tmp364, align 1		; <i8> [#uses=1]
	%tmp369370371374 = zext i8 %tmp365 to i64		; <i64> [#uses=1]
	%tmp375 = getelementptr %struct.regmngobj* @regmng, i32 0, i32 8, i64 %tmp369370371374		; <i8*> [#uses=1]
	%tmp376 = load i8* %tmp375, align 1		; <i8> [#uses=1]
	%toBool378 = icmp eq i8 %tmp376, 0		; <i1> [#uses=1]
	br i1 %toBool378, label %cond_next383, label %cond_true379

cond_true379:		; preds = %cond_true345
	store i32 24, i32* @cg_caller_call_site_var, align 4
	store i32 18, i32* @cg_caller_id_var, align 4
	store i32 0, i32* @cg_caller_call_site_var, align 4
	store i32 76, i32* @cg_caller_id_var, align 4
	store i32 0, i32* @cg_caller_call_site_var, align 4
	store i32 77, i32* @cg_caller_id_var, align 4
	%tmp381 = call i32 (i8*, ...)* @printf( i8* noalias  getelementptr ([23 x i8]* @.str, i32 0, i64 0) )		; <i32> [#uses=0]
	br label %cond_next383

cond_next383:		; preds = %cond_true379, %cond_true345, %bb317
	%tmp385 = add i32 %x.0932, 1		; <i32> [#uses=2]
	%tmp389 = load i32* getelementptr (%struct.regmngobj* @regmng, i32 0, i32 12), align 8		; <i32> [#uses=1]
	%tmp391 = icmp sgt i32 %tmp389, %tmp385		; <i1> [#uses=1]
	store i32 %val412, i32* @cg_caller_call_site_var, align 4
	store i32 %val311, i32* @cg_caller_id_var, align 4
	br i1 %tmp391, label %bb317, label %bb397

bb397:		; preds = %cond_next383, %bb386.outer
	%tmp396 = add i32 %y.0.reg2mem.0.ph, 1		; <i32> [#uses=2]
	%tmp400 = load i32* getelementptr (%struct.regmngobj* @regmng, i32 0, i32 13), align 8		; <i32> [#uses=1]
	%tmp402 = icmp sgt i32 %tmp400, %tmp396		; <i1> [#uses=1]
	store i32 %val410, i32* @cg_caller_call_site_var, align 4
	store i32 %val39, i32* @cg_caller_id_var, align 4
	br i1 %tmp402, label %bb386.outer, label %bb405

bb405:		; preds = %bb397, %bb314
	store i32 25, i32* @cg_caller_call_site_var, align 4
	store i32 18, i32* @cg_caller_id_var, align 4
	call fastcc void @_ZN9regmngobj19defineneighborhood1Ev( )
	store i32 26, i32* @cg_caller_call_site_var, align 4
	store i32 18, i32* @cg_caller_id_var, align 4
	call fastcc void @_ZN9regmngobj20definemiddleregpointEv( )
	%tmp459889 = load i32* getelementptr (%struct.regmngobj* @regmng, i32 0, i32 18, i32 4), align 8		; <i32> [#uses=2]
	%tmp461891 = icmp sgt i32 %tmp459889, 0		; <i1> [#uses=1]
	br i1 %tmp461891, label %bb415, label %bb485.preheader

bb415:		; preds = %bb455, %bb405
	%i412.0.reg2mem.0 = phi i32 [ %tmp454, %bb455 ], [ 0, %bb405 ]		; <i32> [#uses=2]
	%val313 = load i32* @cg_caller_id_var, align 4		; <i32> [#uses=2]
	%val414 = load i32* @cg_caller_call_site_var, align 4		; <i32> [#uses=2]
	store i32 78, i32* @cg_caller_id_var, align 4
	call void @CallEdgeProfiler( i32 %val313, i32 %val414, i32 78 )
	%tmp423 = load %struct.regobj*** getelementptr (%struct.regmngobj* @regmng, i32 0, i32 18, i32 0), align 8		; <%struct.regobj**> [#uses=1]
	%tmp424425 = sext i32 %i412.0.reg2mem.0 to i64		; <i64> [#uses=1]
	%tmp426 = getelementptr %struct.regobj** %tmp423, i64 %tmp424425		; <%struct.regobj**> [#uses=1]
	%tmp430 = load %struct.regobj** %tmp426, align 8		; <%struct.regobj*> [#uses=2]
	%tmp433 = getelementptr %struct.regobj* %tmp430, i32 0, i32 5, i32 1		; <i32*> [#uses=2]
	%tmp434 = load i32* %tmp433, align 8		; <i32> [#uses=1]
	%tmp437 = getelementptr %struct.regobj* %tmp430, i32 0, i32 5, i32 0		; <i32*> [#uses=2]
	%tmp438 = load i32* %tmp437, align 8		; <i32> [#uses=1]
	store i32 27, i32* @cg_caller_call_site_var, align 4
	store i32 18, i32* @cg_caller_id_var, align 4
	store i32 0, i32* @cg_caller_call_site_var, align 4
	store i32 78, i32* @cg_caller_id_var, align 4
	%tmp440 = call fastcc i8 @_ZN9regmngobj13findfreeplaceEiiRiS0_( i32 %tmp438, i32 %tmp434, i32* %x413, i32* %y414 ) zeroext 		; <i8> [#uses=1]
	%toBool442 = icmp eq i8 %tmp440, 0		; <i1> [#uses=1]
	br i1 %toBool442, label %bb455, label %cond_true443

cond_true443:		; preds = %bb415
	%tmp444 = load i32* %x413, align 4		; <i32> [#uses=1]
	store i32 %tmp444, i32* %tmp437, align 8
	%tmp448 = load i32* %y414, align 4		; <i32> [#uses=1]
	store i32 %tmp448, i32* %tmp433, align 8
	br label %bb455

bb455:		; preds = %cond_true443, %bb415
	%tmp454 = add i32 %i412.0.reg2mem.0, 1		; <i32> [#uses=2]
	%tmp459 = load i32* getelementptr (%struct.regmngobj* @regmng, i32 0, i32 18, i32 4), align 8		; <i32> [#uses=2]
	%tmp461 = icmp sgt i32 %tmp459, %tmp454		; <i1> [#uses=1]
	store i32 %val414, i32* @cg_caller_call_site_var, align 4
	store i32 %val313, i32* @cg_caller_id_var, align 4
	br i1 %tmp461, label %bb415, label %bb485.preheader

bb465:		; preds = %bb485.preheader, %bb465
	%i.0927 = phi i32 [ %tmp484, %bb465 ], [ 0, %bb485.preheader ]		; <i32> [#uses=2]
	%val315 = load i32* @cg_caller_id_var, align 4		; <i32> [#uses=2]
	%val416 = load i32* @cg_caller_call_site_var, align 4		; <i32> [#uses=2]
	store i32 79, i32* @cg_caller_id_var, align 4
	call void @CallEdgeProfiler( i32 %val315, i32 %val416, i32 79 )
	%tmp474 = load %struct.regobj*** getelementptr (%struct.regmngobj* @regmng, i32 0, i32 18, i32 0), align 8		; <%struct.regobj**> [#uses=1]
	%tmp475476 = sext i32 %i.0927 to i64		; <i64> [#uses=1]
	%tmp477 = getelementptr %struct.regobj** %tmp474, i64 %tmp475476		; <%struct.regobj**> [#uses=1]
	%tmp481 = load %struct.regobj** %tmp477, align 8		; <%struct.regobj*> [#uses=1]
	%tmp482 = getelementptr %struct.regobj* %tmp481, i32 0, i32 2		; <i8*> [#uses=1]
	store i8 1, i8* %tmp482, align 8
	%tmp484 = add i32 %i.0927, 1		; <i32> [#uses=2]
	%tmp489 = load i32* getelementptr (%struct.regmngobj* @regmng, i32 0, i32 18, i32 4), align 8		; <i32> [#uses=1]
	%tmp491 = icmp sgt i32 %tmp489, %tmp484		; <i1> [#uses=1]
	store i32 %val416, i32* @cg_caller_call_site_var, align 4
	store i32 %val315, i32* @cg_caller_id_var, align 4
